
lms_ctr_app.elf:     file format elf32-littlenios2
lms_ctr_app.elf
architecture: nios2:r1, flags 0x00000112:
EXEC_P, HAS_SYMS, D_PAGED
start address 0x0010022c

Program Header:
    LOAD off    0x00001000 vaddr 0x00100000 paddr 0x00100000 align 2**12
         filesz 0x00000020 memsz 0x00000020 flags r-x
    LOAD off    0x00001020 vaddr 0x00100020 paddr 0x00100020 align 2**12
         filesz 0x000041fc memsz 0x000041fc flags r-x
    LOAD off    0x00006000 vaddr 0x00200000 paddr 0x0010421c align 2**12
         filesz 0x0000080c memsz 0x00000ad8 flags rw-

Sections:
Idx Name          Size      VMA       LMA       File off  Algn
  0 .entry        00000020  00100000  00100000  00001000  2**5
                  CONTENTS, ALLOC, LOAD, READONLY, CODE
  1 .exceptions   0000020c  00100020  00100020  00001020  2**2
                  CONTENTS, ALLOC, LOAD, READONLY, CODE
  2 .text         00003ff0  0010022c  0010022c  0000122c  2**2
                  CONTENTS, ALLOC, LOAD, READONLY, CODE
  3 .rodata       00000038  00200000  0010421c  00006000  2**2
                  CONTENTS, ALLOC, LOAD, READONLY, DATA
  4 .rwdata       000007d4  00200038  00104254  00006038  2**2
                  CONTENTS, ALLOC, LOAD, DATA, SMALL_DATA
  5 .bss          000002cc  0020080c  00104a28  0000680c  2**2
                  ALLOC, SMALL_DATA
  6 .onchip_flash_0_data 00000000  00104a28  00104a28  0000680c  2**0
                  CONTENTS
  7 .onchip_memory2_0 00000000  00200ad8  00200ad8  0000680c  2**0
                  CONTENTS
  8 .comment      00000023  00000000  00000000  0000680c  2**0
                  CONTENTS, READONLY
  9 .debug_aranges 000005b8  00000000  00000000  00006830  2**3
                  CONTENTS, READONLY, DEBUGGING
 10 .debug_info   0000732f  00000000  00000000  00006de8  2**0
                  CONTENTS, READONLY, DEBUGGING
 11 .debug_abbrev 00002656  00000000  00000000  0000e117  2**0
                  CONTENTS, READONLY, DEBUGGING
 12 .debug_line   00002a43  00000000  00000000  0001076d  2**0
                  CONTENTS, READONLY, DEBUGGING
 13 .debug_frame  00000c20  00000000  00000000  000131b0  2**2
                  CONTENTS, READONLY, DEBUGGING
 14 .debug_str    00002041  00000000  00000000  00013dd0  2**0
                  CONTENTS, READONLY, DEBUGGING
 15 .debug_loc    00000c1a  00000000  00000000  00015e11  2**0
                  CONTENTS, READONLY, DEBUGGING
 16 .debug_alt_sim_info 00000040  00000000  00000000  00016a2c  2**2
                  CONTENTS, READONLY, DEBUGGING
 17 .debug_ranges 00000138  00000000  00000000  00016a70  2**3
                  CONTENTS, READONLY, DEBUGGING
 18 .thread_model 00000003  00000000  00000000  00018d67  2**0
                  CONTENTS, READONLY
 19 .cpu          00000009  00000000  00000000  00018d6a  2**0
                  CONTENTS, READONLY
 20 .qsys         00000001  00000000  00000000  00018d73  2**0
                  CONTENTS, READONLY
 21 .simulation_enabled 00000001  00000000  00000000  00018d74  2**0
                  CONTENTS, READONLY
 22 .sysid_hash   00000004  00000000  00000000  00018d75  2**0
                  CONTENTS, READONLY
 23 .sysid_base   00000004  00000000  00000000  00018d79  2**0
                  CONTENTS, READONLY
 24 .sysid_time   00000004  00000000  00000000  00018d7d  2**0
                  CONTENTS, READONLY
 25 .stderr_dev   00000004  00000000  00000000  00018d81  2**0
                  CONTENTS, READONLY
 26 .stdin_dev    00000004  00000000  00000000  00018d85  2**0
                  CONTENTS, READONLY
 27 .stdout_dev   00000004  00000000  00000000  00018d89  2**0
                  CONTENTS, READONLY
 28 .sopc_system_name 00000007  00000000  00000000  00018d8d  2**0
                  CONTENTS, READONLY
 29 .sopcinfo     0007038e  00000000  00000000  00018d94  2**0
                  CONTENTS, READONLY
SYMBOL TABLE:
00100000 l    d  .entry	00000000 .entry
00100020 l    d  .exceptions	00000000 .exceptions
0010022c l    d  .text	00000000 .text
00200000 l    d  .rodata	00000000 .rodata
00200038 l    d  .rwdata	00000000 .rwdata
0020080c l    d  .bss	00000000 .bss
00104a28 l    d  .onchip_flash_0_data	00000000 .onchip_flash_0_data
00200ad8 l    d  .onchip_memory2_0	00000000 .onchip_memory2_0
00000000 l    d  .comment	00000000 .comment
00000000 l    d  .debug_aranges	00000000 .debug_aranges
00000000 l    d  .debug_info	00000000 .debug_info
00000000 l    d  .debug_abbrev	00000000 .debug_abbrev
00000000 l    d  .debug_line	00000000 .debug_line
00000000 l    d  .debug_frame	00000000 .debug_frame
00000000 l    d  .debug_str	00000000 .debug_str
00000000 l    d  .debug_loc	00000000 .debug_loc
00000000 l    d  .debug_alt_sim_info	00000000 .debug_alt_sim_info
00000000 l    d  .debug_ranges	00000000 .debug_ranges
00000000 l    df *ABS*	00000000 ../lms_ctr_bsp//obj/HAL/src/crt0.o
00100264 l       .text	00000000 alt_after_alt_main
00000000 l    df *ABS*	00000000 alt_irq_handler.c
00000000 l    df *ABS*	00000000 alt_instruction_exception_entry.c
00000000 l    df *ABS*	00000000 i2c_opencores.c
00000000 l    df *ABS*	00000000 main.c
00000000 l    df *ABS*	00000000 spi_flash_lib.c
00000000 l    df *ABS*	00000000 lib2-divmod.c
001013cc l     F .text	0000006c udivmodsi4
00000000 l    df *ABS*	00000000 lib2-mul.c
00000000 l    df *ABS*	00000000 memset.c
00000000 l    df *ABS*	00000000 alt_load.c
00101644 l     F .text	00000064 alt_load_section
00000000 l    df *ABS*	00000000 alt_main.c
00000000 l    df *ABS*	00000000 alt_usleep.c
00000000 l    df *ABS*	00000000 alt_sys_init.c
001017b4 l     F .text	00000038 alt_dev_reg
00200038 l     O .rwdata	000000c4 uart
002000fc l     O .rwdata	00000100 onchip_flash_0
00000000 l    df *ABS*	00000000 altera_avalon_spi.c
00000000 l    df *ABS*	00000000 altera_avalon_uart_fd.c
00000000 l    df *ABS*	00000000 altera_avalon_uart_init.c
00101c3c l     F .text	00000098 altera_avalon_uart_irq
00101cd4 l     F .text	000000e0 altera_avalon_uart_rxirq
00101db4 l     F .text	00000144 altera_avalon_uart_txirq
00000000 l    df *ABS*	00000000 altera_avalon_uart_read.c
00101f4c l     F .text	00000050 alt_get_errno
00000000 l    df *ABS*	00000000 altera_avalon_uart_write.c
00102178 l     F .text	00000050 alt_get_errno
00000000 l    df *ABS*	00000000 altera_onchip_flash.c
00102374 l     F .text	00000038 alt_flash_device_register
00000000 l    df *ABS*	00000000 alt_busy_sleep.c
00000000 l    df *ABS*	00000000 alt_close.c
001033f8 l     F .text	00000050 alt_get_errno
00000000 l    df *ABS*	00000000 alt_dcache_flush.c
00000000 l    df *ABS*	00000000 alt_dcache_flush_all.c
00000000 l    df *ABS*	00000000 alt_dev.c
00103560 l     F .text	0000002c alt_dev_null_write
00000000 l    df *ABS*	00000000 alt_dev_llist_insert.c
0010358c l     F .text	00000050 alt_get_errno
00000000 l    df *ABS*	00000000 alt_do_ctors.c
00000000 l    df *ABS*	00000000 alt_do_dtors.c
00000000 l    df *ABS*	00000000 alt_errno.c
00000000 l    df *ABS*	00000000 alt_flash_dev.c
00000000 l    df *ABS*	00000000 alt_icache_flush_all.c
00000000 l    df *ABS*	00000000 alt_iic.c
00000000 l    df *ABS*	00000000 alt_iic_isr_register.c
00000000 l    df *ABS*	00000000 alt_irq_vars.c
00000000 l    df *ABS*	00000000 alt_release_fd.c
00000000 l    df *ABS*	00000000 altera_nios2_gen2_irq.c
00000000 l    df *ABS*	00000000 alt_find_dev.c
00000000 l    df *ABS*	00000000 atexit.c
00000000 l    df *ABS*	00000000 exit.c
00000000 l    df *ABS*	00000000 impure.c
002003a4 l     O .rwdata	00000424 impure_data
00000000 l    df *ABS*	00000000 int_errno.c
00000000 l    df *ABS*	00000000 memcmp.c
00000000 l    df *ABS*	00000000 memcpy.c
00000000 l    df *ABS*	00000000 strlen.c
00000000 l    df *ABS*	00000000 __atexit.c
00000000 l    df *ABS*	00000000 __call_atexit.c
00000000 l    df *ABS*	00000000 alt_exit.c
00200850 g     O .bss	00000004 alt_instruction_exception_handler
00101728 g     F .text	0000005c alt_main
002009d8 g     O .bss	00000100 alt_irq
00101128 g     F .text	000001a0 FlashSpiTransfer
00104254 g       *ABS*	00000000 __flash_rwdata_start
002007c8 g     O .rwdata	00000004 Board_Config_FPGA
0020081c g     O .bss	00000001 block
00200858 g     O .bss	00000040 glEp0Buffer_Tx
002007cc g     O .rwdata	00000002 converted_val
0020081d g     O .bss	00000001 data_cnt
0020081e g     O .bss	00000002 dac_data
00103b5c g     F .text	00000020 altera_nios2_gen2_irq_init
00000000  w      *UND*	00000000 __errno
00100000 g     F .entry	0000000c __reset
00100020 g       *ABS*	00000000 __flash_exceptions_start
00200854 g     O .bss	00000004 errno
00200844 g     O .bss	00000004 alt_argv
002087c8 g       *ABS*	00000000 _gp
00101784 g     F .text	00000030 usleep
00200820 g     O .bss	00000001 MCU_retries
00103210 g     F .text	00000090 alt_onchip_flash_poll_for_status_write_passed
00200224 g     O .rwdata	00000180 alt_fd_list
00200821 g     O .bss	00000004 sc_brdg_data
00103b7c g     F .text	00000090 alt_find_dev
00103d70 g     F .text	00000138 memcpy
00100000 g       *ABS*	00000000 __alt_mem_onchip_flash_0_data
0010421c g       *ABS*	00000000 __DTOR_END__
00103c0c g     F .text	0000009c alt_exception_cause_generated_bad_addr
001002dc g     F .text	00000038 I2C_start
00000000  w      *UND*	00000000 malloc
00200000 g       *ABS*	00000000 __alt_mem_onchip_memory2_0
001014e8 g     F .text	00000008 .hidden __udivsi3
00103180 g     F .text	00000090 alt_onchip_flash_poll_for_status_erase_passed
002007d8 g     O .rwdata	00000008 altera_onchip_flash_list
00101050 g     F .text	000000d8 CyFxSpiWaitForStatus
00103520 g     F .text	00000024 alt_dcache_flush
00102514 g     F .text	00000168 alt_onchip_flash_erase_block
002007f0 g     O .rwdata	00000004 alt_max_fd
00200804 g     O .rwdata	00000004 _global_impure_ptr
00100408 g     F .text	00000014 set_led
00200ad8 g       *ABS*	00000000 __bss_end
001039ec g     F .text	000000f0 alt_iic_isr_register
00101b94 g     F .text	000000a8 altera_avalon_uart_init
00200828 g     O .bss	00000004 fpga_data
001039a0 g     F .text	0000004c alt_ic_irq_enabled
0020084c g     O .bss	00000004 alt_irq_active
001000fc g     F .exceptions	000000d0 alt_irq_handler
002001fc g     O .rwdata	00000028 alt_dev_null
00103544 g     F .text	0000001c alt_dcache_flush_all
0020080c g       *ABS*	00000000 __ram_rwdata_end
00100504 g     F .text	00000110 testEEPROM
002007e8 g     O .rwdata	00000008 alt_dev_list
00200814 g     O .bss	00000004 flash_page_data_cnt
00200038 g       *ABS*	00000000 __ram_rodata_end
001014f0 g     F .text	00000008 .hidden __umodsi3
00200ad8 g       *ABS*	00000000 end
0020082c g     O .bss	00000004 last_portion
001021c8 g     F .text	000001ac altera_avalon_uart_write
001001cc g     F .exceptions	00000060 alt_instruction_exception_entry
0010421c g       *ABS*	00000000 __CTOR_LIST__
00201000 g       *ABS*	00000000 __alt_stack_pointer
00200830 g     O .bss	00000004 current_portion
00101ae4 g     F .text	00000060 altera_avalon_uart_write_fd
00101b44 g     F .text	00000050 altera_avalon_uart_close_fd
00102478 g     F .text	0000009c alt_onchip_flash_get_info
00101048 g     F .text	00000008 FlashSpiFastRead
00104054 g     F .text	00000194 __call_exitprocs
00200834 g     O .bss	00000001 test
0010022c g     F .text	0000003c _start
00101880 g     F .text	00000204 alt_avalon_spi_command
00101820 g     F .text	00000060 alt_sys_init
00103f40 g     F .text	00000114 __register_exitproc
001014f8 g     F .text	00000028 .hidden __mulsi3
00200038 g       *ABS*	00000000 __ram_rwdata_start
00200000 g       *ABS*	00000000 __ram_rodata_start
001032a0 g     F .text	00000158 alt_busy_sleep
00103cf4 g     F .text	0000007c memcmp
00200ad8 g       *ABS*	00000000 __alt_stack_base
001023ac g     F .text	000000cc alt_onchip_flash_read
001035dc g     F .text	000000a4 alt_dev_llist_insert
002007f8 g     O .rwdata	00000008 alt_flash_dev_list
0020080c g       *ABS*	00000000 __bss_start
00101520 g     F .text	00000124 memset
00100614 g     F .text	000009f4 main
00200848 g     O .bss	00000004 alt_envp
001003cc g     F .text	0000003c getFifoData
0020083c g     O .bss	00000001 spiFastRead
0010041c g     F .text	000000e8 Configure_LM75
002007f4 g     O .rwdata	00000004 alt_errno
001030f0 g     F .text	00000090 alt_onchip_flash_poll_for_status_to_go_idle
00101438 g     F .text	00000054 .hidden __divsi3
0010421c g       *ABS*	00000000 __CTOR_END__
00102c18 g     F .text	000004d8 altera_onchip_flash_init
00100314 g     F .text	0000002c I2C_read
0010421c g       *ABS*	00000000 __flash_rodata_start
0010421c g       *ABS*	00000000 __DTOR_LIST__
001017ec g     F .text	00000034 alt_irq_init
00103adc g     F .text	00000080 alt_release_fd
00103ca8 g     F .text	00000014 atexit
002007d0 g     O .rwdata	00000004 LMS_Ctrl_Packet_Rx
00200808 g     O .rwdata	00000004 _impure_ptr
00200840 g     O .bss	00000004 alt_argc
001036dc g     F .text	0000005c _do_dtors
00100020 g       .exceptions	00000000 alt_irq_entry
002007e0 g     O .rwdata	00000008 alt_fs_list
0010267c g     F .text	000002c4 alt_onchip_flash_write_block
002007ce g     O .rwdata	00000001 dac_val
00200818 g     O .bss	00000004 flash_page
00100268 g     F .text	00000074 I2C_init
00100020 g       *ABS*	00000000 __ram_exceptions_start
0010380c g     F .text	00000050 alt_ic_isr_register
0020080c g       *ABS*	00000000 _edata
00101a84 g     F .text	00000060 altera_avalon_uart_read_fd
00102940 g     F .text	000002d8 alt_onchip_flash_write
00200ad8 g       *ABS*	00000000 _end
00103738 g     F .text	00000068 alt_flash_open_dev
0010022c g       *ABS*	00000000 __ram_exceptions_end
00200810 g     O .bss	00000004 flash_data_cnt_free
001038fc g     F .text	000000a4 alt_ic_irq_disable
00200835 g     O .bss	00000001 cmd_errors
00103cbc g     F .text	00000038 exit
001037a0 g     F .text	00000050 alt_flash_close_dev
0010148c g     F .text	0000005c .hidden __modsi3
00101008 g     F .text	00000040 ReverseBitOrder
00201000 g       *ABS*	00000000 __alt_data_end
00100020 g     F .exceptions	00000000 alt_exception
00200898 g     O .bss	00000100 flash_page_data
00101ef8 g     F .text	00000054 altera_avalon_uart_close
001041e8 g     F .text	00000034 _exit
0010037c g     F .text	00000050 Check_many_blocks
00103ea8 g     F .text	00000098 strlen
0020080c g     O .bss	00000004 flash_data_counter_to_copy
002007d4 g     O .rwdata	00000004 LMS_Ctrl_Packet_Tx
001037f0 g     F .text	0000001c alt_icache_flush_all
00200800 g     O .rwdata	00000004 alt_priority_mask
0010385c g     F .text	000000a0 alt_ic_irq_enable
00101f9c g     F .text	000001dc altera_avalon_uart_read
00200838 g     O .bss	00000004 fpga_byte
00103680 g     F .text	0000005c _do_ctors
00103448 g     F .text	000000d8 close
001012c8 g     F .text	00000104 FlashSpiEraseSector
001016a8 g     F .text	00000080 alt_load
00100340 g     F .text	0000003c I2C_write
00000000  w      *UND*	00000000 free
00200998 g     O .bss	00000040 glEp0Buffer_Rx



Disassembly of section .entry:

00100000 <__reset>:
  100000:	00400434 	movhi	at,16
  100004:	08408b14 	ori	at,at,556
  100008:	0800683a 	jmp	at
	...

Disassembly of section .exceptions:

00100020 <alt_exception>:
  100020:	deffed04 	addi	sp,sp,-76
  100024:	dfc00015 	stw	ra,0(sp)
  100028:	d8400215 	stw	at,8(sp)
  10002c:	d8800315 	stw	r2,12(sp)
  100030:	d8c00415 	stw	r3,16(sp)
  100034:	d9000515 	stw	r4,20(sp)
  100038:	d9400615 	stw	r5,24(sp)
  10003c:	d9800715 	stw	r6,28(sp)
  100040:	d9c00815 	stw	r7,32(sp)
  100044:	000b307a 	rdctl	r5,estatus
  100048:	da000915 	stw	r8,36(sp)
  10004c:	da400a15 	stw	r9,40(sp)
  100050:	da800b15 	stw	r10,44(sp)
  100054:	dac00c15 	stw	r11,48(sp)
  100058:	db000d15 	stw	r12,52(sp)
  10005c:	db400e15 	stw	r13,56(sp)
  100060:	db800f15 	stw	r14,60(sp)
  100064:	dbc01015 	stw	r15,64(sp)
  100068:	d9401115 	stw	r5,68(sp)
  10006c:	ebffff04 	addi	r15,ea,-4
  100070:	dbc01215 	stw	r15,72(sp)
  100074:	0009313a 	rdctl	r4,ipending
  100078:	2880004c 	andi	r2,r5,1
  10007c:	10000326 	beq	r2,zero,10008c <alt_exception+0x6c>
  100080:	20000226 	beq	r4,zero,10008c <alt_exception+0x6c>
  100084:	01000fc0 	call	1000fc <alt_irq_handler>
  100088:	00000706 	br	1000a8 <alt_exception+0x88>
  10008c:	df401215 	stw	ea,72(sp)
  100090:	e8bfff17 	ldw	r2,-4(ea)
  100094:	e93fff04 	addi	r4,ea,-4
  100098:	01001cc0 	call	1001cc <alt_instruction_exception_entry>
  10009c:	1000021e 	bne	r2,zero,1000a8 <alt_exception+0x88>
  1000a0:	ebffff04 	addi	r15,ea,-4
  1000a4:	dbc01215 	stw	r15,72(sp)
  1000a8:	d9401117 	ldw	r5,68(sp)
  1000ac:	df401217 	ldw	ea,72(sp)
  1000b0:	dfc00017 	ldw	ra,0(sp)
  1000b4:	2801707a 	wrctl	estatus,r5
  1000b8:	d8400217 	ldw	at,8(sp)
  1000bc:	d8800317 	ldw	r2,12(sp)
  1000c0:	d8c00417 	ldw	r3,16(sp)
  1000c4:	d9000517 	ldw	r4,20(sp)
  1000c8:	d9400617 	ldw	r5,24(sp)
  1000cc:	d9800717 	ldw	r6,28(sp)
  1000d0:	d9c00817 	ldw	r7,32(sp)
  1000d4:	da000917 	ldw	r8,36(sp)
  1000d8:	da400a17 	ldw	r9,40(sp)
  1000dc:	da800b17 	ldw	r10,44(sp)
  1000e0:	dac00c17 	ldw	r11,48(sp)
  1000e4:	db000d17 	ldw	r12,52(sp)
  1000e8:	db400e17 	ldw	r13,56(sp)
  1000ec:	db800f17 	ldw	r14,60(sp)
  1000f0:	dbc01017 	ldw	r15,64(sp)
  1000f4:	dec01304 	addi	sp,sp,76
  1000f8:	ef80083a 	eret

001000fc <alt_irq_handler>:
  1000fc:	defff904 	addi	sp,sp,-28
  100100:	dfc00615 	stw	ra,24(sp)
  100104:	df000515 	stw	fp,20(sp)
  100108:	df000504 	addi	fp,sp,20
  10010c:	0001883a 	nop
  100110:	0005313a 	rdctl	r2,ipending
  100114:	e0bffe15 	stw	r2,-8(fp)
  100118:	e0bffe17 	ldw	r2,-8(fp)
  10011c:	e0bffb15 	stw	r2,-20(fp)
  100120:	e03ffd15 	stw	zero,-12(fp)
  100124:	00800044 	movi	r2,1
  100128:	e0bffc15 	stw	r2,-16(fp)
  10012c:	e0fffb17 	ldw	r3,-20(fp)
  100130:	e0bffc17 	ldw	r2,-16(fp)
  100134:	1884703a 	and	r2,r3,r2
  100138:	10001426 	beq	r2,zero,10018c <alt_irq_handler+0x90>
  10013c:	00800834 	movhi	r2,32
  100140:	10827604 	addi	r2,r2,2520
  100144:	e0fffd17 	ldw	r3,-12(fp)
  100148:	180690fa 	slli	r3,r3,3
  10014c:	10c5883a 	add	r2,r2,r3
  100150:	10c00017 	ldw	r3,0(r2)
  100154:	00800834 	movhi	r2,32
  100158:	10827604 	addi	r2,r2,2520
  10015c:	e13ffd17 	ldw	r4,-12(fp)
  100160:	200890fa 	slli	r4,r4,3
  100164:	21000104 	addi	r4,r4,4
  100168:	1105883a 	add	r2,r2,r4
  10016c:	10800017 	ldw	r2,0(r2)
  100170:	1009883a 	mov	r4,r2
  100174:	183ee83a 	callr	r3
  100178:	0001883a 	nop
  10017c:	0005313a 	rdctl	r2,ipending
  100180:	e0bfff15 	stw	r2,-4(fp)
  100184:	e0bfff17 	ldw	r2,-4(fp)
  100188:	00000706 	br	1001a8 <alt_irq_handler+0xac>
  10018c:	e0bffc17 	ldw	r2,-16(fp)
  100190:	1085883a 	add	r2,r2,r2
  100194:	e0bffc15 	stw	r2,-16(fp)
  100198:	e0bffd17 	ldw	r2,-12(fp)
  10019c:	10800044 	addi	r2,r2,1
  1001a0:	e0bffd15 	stw	r2,-12(fp)
  1001a4:	003fe106 	br	10012c <_gp+0xffef7964>
  1001a8:	e0bffb15 	stw	r2,-20(fp)
  1001ac:	e0bffb17 	ldw	r2,-20(fp)
  1001b0:	103fdb1e 	bne	r2,zero,100120 <_gp+0xffef7958>
  1001b4:	0001883a 	nop
  1001b8:	e037883a 	mov	sp,fp
  1001bc:	dfc00117 	ldw	ra,4(sp)
  1001c0:	df000017 	ldw	fp,0(sp)
  1001c4:	dec00204 	addi	sp,sp,8
  1001c8:	f800283a 	ret

001001cc <alt_instruction_exception_entry>:
  1001cc:	defffb04 	addi	sp,sp,-20
  1001d0:	dfc00415 	stw	ra,16(sp)
  1001d4:	df000315 	stw	fp,12(sp)
  1001d8:	df000304 	addi	fp,sp,12
  1001dc:	e13fff15 	stw	r4,-4(fp)
  1001e0:	00bfffc4 	movi	r2,-1
  1001e4:	e0bffd15 	stw	r2,-12(fp)
  1001e8:	e03ffe15 	stw	zero,-8(fp)
  1001ec:	d0a02217 	ldw	r2,-32632(gp)
  1001f0:	10000726 	beq	r2,zero,100210 <alt_instruction_exception_entry+0x44>
  1001f4:	d0a02217 	ldw	r2,-32632(gp)
  1001f8:	e0fffd17 	ldw	r3,-12(fp)
  1001fc:	1809883a 	mov	r4,r3
  100200:	e17fff17 	ldw	r5,-4(fp)
  100204:	e1bffe17 	ldw	r6,-8(fp)
  100208:	103ee83a 	callr	r2
  10020c:	00000206 	br	100218 <alt_instruction_exception_entry+0x4c>
  100210:	003da03a 	break	0
  100214:	0005883a 	mov	r2,zero
  100218:	e037883a 	mov	sp,fp
  10021c:	dfc00117 	ldw	ra,4(sp)
  100220:	df000017 	ldw	fp,0(sp)
  100224:	dec00204 	addi	sp,sp,8
  100228:	f800283a 	ret

Disassembly of section .text:

0010022c <_start>:
  10022c:	06c00834 	movhi	sp,32
  100230:	dec40014 	ori	sp,sp,4096
  100234:	06800834 	movhi	gp,32
  100238:	d6a1f214 	ori	gp,gp,34760
  10023c:	00800834 	movhi	r2,32
  100240:	10820314 	ori	r2,r2,2060
  100244:	00c00834 	movhi	r3,32
  100248:	18c2b614 	ori	r3,r3,2776
  10024c:	10c00326 	beq	r2,r3,10025c <_start+0x30>
  100250:	10000015 	stw	zero,0(r2)
  100254:	10800104 	addi	r2,r2,4
  100258:	10fffd36 	bltu	r2,r3,100250 <_gp+0xffef7a88>
  10025c:	01016a80 	call	1016a8 <alt_load>
  100260:	01017280 	call	101728 <alt_main>

00100264 <alt_after_alt_main>:
  100264:	003fff06 	br	100264 <_gp+0xffef7a9c>

00100268 <I2C_init>:
  100268:	defffd04 	addi	sp,sp,-12
  10026c:	dc400115 	stw	r17,4(sp)
  100270:	dc000015 	stw	r16,0(sp)
  100274:	2823883a 	mov	r17,r5
  100278:	2021883a 	mov	r16,r4
  10027c:	01400144 	movi	r5,5
  100280:	3009883a 	mov	r4,r6
  100284:	dfc00215 	stw	ra,8(sp)
  100288:	01014f80 	call	1014f8 <__mulsi3>
  10028c:	8809883a 	mov	r4,r17
  100290:	100b883a 	mov	r5,r2
  100294:	01014e80 	call	1014e8 <__udivsi3>
  100298:	10bfffc4 	addi	r2,r2,-1
  10029c:	80c00204 	addi	r3,r16,8
  1002a0:	18000035 	stwio	zero,0(r3)
  1002a4:	01000044 	movi	r4,1
  1002a8:	81000435 	stwio	r4,16(r16)
  1002ac:	11003fcc 	andi	r4,r2,255
  1002b0:	81000035 	stwio	r4,0(r16)
  1002b4:	1004d23a 	srli	r2,r2,8
  1002b8:	10803fcc 	andi	r2,r2,255
  1002bc:	80800135 	stwio	r2,4(r16)
  1002c0:	00802004 	movi	r2,128
  1002c4:	18800035 	stwio	r2,0(r3)
  1002c8:	dfc00217 	ldw	ra,8(sp)
  1002cc:	dc400117 	ldw	r17,4(sp)
  1002d0:	dc000017 	ldw	r16,0(sp)
  1002d4:	dec00304 	addi	sp,sp,12
  1002d8:	f800283a 	ret

001002dc <I2C_start>:
  1002dc:	3180004c 	andi	r6,r6,1
  1002e0:	294b883a 	add	r5,r5,r5
  1002e4:	298b883a 	add	r5,r5,r6
  1002e8:	21400335 	stwio	r5,12(r4)
  1002ec:	21000404 	addi	r4,r4,16
  1002f0:	00802404 	movi	r2,144
  1002f4:	20800035 	stwio	r2,0(r4)
  1002f8:	20800037 	ldwio	r2,0(r4)
  1002fc:	1080008c 	andi	r2,r2,2
  100300:	103ffd1e 	bne	r2,zero,1002f8 <_gp+0xffef7b30>
  100304:	20800037 	ldwio	r2,0(r4)
  100308:	1004d1fa 	srli	r2,r2,7
  10030c:	1080004c 	andi	r2,r2,1
  100310:	f800283a 	ret

00100314 <I2C_read>:
  100314:	20c00404 	addi	r3,r4,16
  100318:	28000226 	beq	r5,zero,100324 <I2C_read+0x10>
  10031c:	00801a04 	movi	r2,104
  100320:	00000106 	br	100328 <I2C_read+0x14>
  100324:	00800804 	movi	r2,32
  100328:	18800035 	stwio	r2,0(r3)
  10032c:	18800037 	ldwio	r2,0(r3)
  100330:	1080008c 	andi	r2,r2,2
  100334:	103ffd1e 	bne	r2,zero,10032c <_gp+0xffef7b64>
  100338:	20800337 	ldwio	r2,12(r4)
  10033c:	f800283a 	ret

00100340 <I2C_write>:
  100340:	29403fcc 	andi	r5,r5,255
  100344:	21400335 	stwio	r5,12(r4)
  100348:	21000404 	addi	r4,r4,16
  10034c:	30000226 	beq	r6,zero,100358 <I2C_write+0x18>
  100350:	00801404 	movi	r2,80
  100354:	00000106 	br	10035c <I2C_write+0x1c>
  100358:	00800404 	movi	r2,16
  10035c:	20800035 	stwio	r2,0(r4)
  100360:	20800037 	ldwio	r2,0(r4)
  100364:	1080008c 	andi	r2,r2,2
  100368:	103ffd1e 	bne	r2,zero,100360 <_gp+0xffef7b98>
  10036c:	20800037 	ldwio	r2,0(r4)
  100370:	1004d1fa 	srli	r2,r2,7
  100374:	1080004c 	andi	r2,r2,1
  100378:	f800283a 	ret

0010037c <Check_many_blocks>:
  10037c:	defffe04 	addi	sp,sp,-8
  100380:	dc000015 	stw	r16,0(sp)
  100384:	d4200217 	ldw	r16,-32760(gp)
  100388:	21403fcc 	andi	r5,r4,255
  10038c:	01000e04 	movi	r4,56
  100390:	dfc00115 	stw	ra,4(sp)
  100394:	01014e80 	call	1014e8 <__udivsi3>
  100398:	80c00083 	ldbu	r3,2(r16)
  10039c:	10803fcc 	andi	r2,r2,255
  1003a0:	10c0052e 	bgeu	r2,r3,1003b8 <Check_many_blocks+0x3c>
  1003a4:	d0a00317 	ldw	r2,-32756(gp)
  1003a8:	00c00104 	movi	r3,4
  1003ac:	10c00045 	stb	r3,1(r2)
  1003b0:	00800044 	movi	r2,1
  1003b4:	00000106 	br	1003bc <Check_many_blocks+0x40>
  1003b8:	0005883a 	mov	r2,zero
  1003bc:	dfc00117 	ldw	ra,4(sp)
  1003c0:	dc000017 	ldw	r16,0(sp)
  1003c4:	dec00204 	addi	sp,sp,8
  1003c8:	f800283a 	ret

001003cc <getFifoData>:
  1003cc:	29403fcc 	andi	r5,r5,255
  1003d0:	280ad0ba 	srli	r5,r5,2
  1003d4:	01800834 	movhi	r6,32
  1003d8:	0007883a 	mov	r3,zero
  1003dc:	31883904 	addi	r6,r6,8420
  1003e0:	18803fcc 	andi	r2,r3,255
  1003e4:	1140072e 	bgeu	r2,r5,100404 <getFifoData+0x38>
  1003e8:	31c00037 	ldwio	r7,0(r6)
  1003ec:	18c5883a 	add	r2,r3,r3
  1003f0:	1085883a 	add	r2,r2,r2
  1003f4:	2085883a 	add	r2,r4,r2
  1003f8:	11c00015 	stw	r7,0(r2)
  1003fc:	18c00044 	addi	r3,r3,1
  100400:	003ff706 	br	1003e0 <_gp+0xffef7c18>
  100404:	f800283a 	ret

00100408 <set_led>:
  100408:	00800834 	movhi	r2,32
  10040c:	21003fcc 	andi	r4,r4,255
  100410:	10883004 	addi	r2,r2,8384
  100414:	11000035 	stwio	r4,0(r2)
  100418:	f800283a 	ret

0010041c <Configure_LM75>:
  10041c:	defffc04 	addi	sp,sp,-16
  100420:	dc000015 	stw	r16,0(sp)
  100424:	04000834 	movhi	r16,32
  100428:	84082004 	addi	r16,r16,8320
  10042c:	dc800215 	stw	r18,8(sp)
  100430:	04801204 	movi	r18,72
  100434:	8009883a 	mov	r4,r16
  100438:	900b883a 	mov	r5,r18
  10043c:	000d883a 	mov	r6,zero
  100440:	dfc00315 	stw	ra,12(sp)
  100444:	dc400115 	stw	r17,4(sp)
  100448:	01002dc0 	call	1002dc <I2C_start>
  10044c:	04400044 	movi	r17,1
  100450:	8009883a 	mov	r4,r16
  100454:	880b883a 	mov	r5,r17
  100458:	000d883a 	mov	r6,zero
  10045c:	01003400 	call	100340 <I2C_write>
  100460:	8009883a 	mov	r4,r16
  100464:	880d883a 	mov	r6,r17
  100468:	01400104 	movi	r5,4
  10046c:	01003400 	call	100340 <I2C_write>
  100470:	8009883a 	mov	r4,r16
  100474:	900b883a 	mov	r5,r18
  100478:	000d883a 	mov	r6,zero
  10047c:	01002dc0 	call	1002dc <I2C_start>
  100480:	8009883a 	mov	r4,r16
  100484:	01400084 	movi	r5,2
  100488:	000d883a 	mov	r6,zero
  10048c:	01003400 	call	100340 <I2C_write>
  100490:	8009883a 	mov	r4,r16
  100494:	01400b44 	movi	r5,45
  100498:	000d883a 	mov	r6,zero
  10049c:	01003400 	call	100340 <I2C_write>
  1004a0:	8009883a 	mov	r4,r16
  1004a4:	880d883a 	mov	r6,r17
  1004a8:	000b883a 	mov	r5,zero
  1004ac:	01003400 	call	100340 <I2C_write>
  1004b0:	8009883a 	mov	r4,r16
  1004b4:	900b883a 	mov	r5,r18
  1004b8:	000d883a 	mov	r6,zero
  1004bc:	01002dc0 	call	1002dc <I2C_start>
  1004c0:	8009883a 	mov	r4,r16
  1004c4:	014000c4 	movi	r5,3
  1004c8:	000d883a 	mov	r6,zero
  1004cc:	01003400 	call	100340 <I2C_write>
  1004d0:	8009883a 	mov	r4,r16
  1004d4:	01400dc4 	movi	r5,55
  1004d8:	000d883a 	mov	r6,zero
  1004dc:	01003400 	call	100340 <I2C_write>
  1004e0:	8009883a 	mov	r4,r16
  1004e4:	000b883a 	mov	r5,zero
  1004e8:	880d883a 	mov	r6,r17
  1004ec:	dfc00317 	ldw	ra,12(sp)
  1004f0:	dc800217 	ldw	r18,8(sp)
  1004f4:	dc400117 	ldw	r17,4(sp)
  1004f8:	dc000017 	ldw	r16,0(sp)
  1004fc:	dec00404 	addi	sp,sp,16
  100500:	01003401 	jmpi	100340 <I2C_write>

00100504 <testEEPROM>:
  100504:	defffc04 	addi	sp,sp,-16
  100508:	dc000015 	stw	r16,0(sp)
  10050c:	04000834 	movhi	r16,32
  100510:	84082004 	addi	r16,r16,8320
  100514:	dc800215 	stw	r18,8(sp)
  100518:	04801404 	movi	r18,80
  10051c:	8009883a 	mov	r4,r16
  100520:	900b883a 	mov	r5,r18
  100524:	000d883a 	mov	r6,zero
  100528:	dfc00315 	stw	ra,12(sp)
  10052c:	dc400115 	stw	r17,4(sp)
  100530:	01002dc0 	call	1002dc <I2C_start>
  100534:	8009883a 	mov	r4,r16
  100538:	000b883a 	mov	r5,zero
  10053c:	000d883a 	mov	r6,zero
  100540:	01003400 	call	100340 <I2C_write>
  100544:	8009883a 	mov	r4,r16
  100548:	000b883a 	mov	r5,zero
  10054c:	000d883a 	mov	r6,zero
  100550:	04400044 	movi	r17,1
  100554:	01003400 	call	100340 <I2C_write>
  100558:	880d883a 	mov	r6,r17
  10055c:	8009883a 	mov	r4,r16
  100560:	900b883a 	mov	r5,r18
  100564:	01002dc0 	call	1002dc <I2C_start>
  100568:	8009883a 	mov	r4,r16
  10056c:	880b883a 	mov	r5,r17
  100570:	01003140 	call	100314 <I2C_read>
  100574:	8009883a 	mov	r4,r16
  100578:	900b883a 	mov	r5,r18
  10057c:	000d883a 	mov	r6,zero
  100580:	01002dc0 	call	1002dc <I2C_start>
  100584:	8009883a 	mov	r4,r16
  100588:	000b883a 	mov	r5,zero
  10058c:	000d883a 	mov	r6,zero
  100590:	01003400 	call	100340 <I2C_write>
  100594:	8009883a 	mov	r4,r16
  100598:	880b883a 	mov	r5,r17
  10059c:	000d883a 	mov	r6,zero
  1005a0:	01003400 	call	100340 <I2C_write>
  1005a4:	8009883a 	mov	r4,r16
  1005a8:	880d883a 	mov	r6,r17
  1005ac:	01401684 	movi	r5,90
  1005b0:	01003400 	call	100340 <I2C_write>
  1005b4:	8009883a 	mov	r4,r16
  1005b8:	900b883a 	mov	r5,r18
  1005bc:	000d883a 	mov	r6,zero
  1005c0:	01002dc0 	call	1002dc <I2C_start>
  1005c4:	8009883a 	mov	r4,r16
  1005c8:	000b883a 	mov	r5,zero
  1005cc:	000d883a 	mov	r6,zero
  1005d0:	01003400 	call	100340 <I2C_write>
  1005d4:	8009883a 	mov	r4,r16
  1005d8:	880b883a 	mov	r5,r17
  1005dc:	000d883a 	mov	r6,zero
  1005e0:	01003400 	call	100340 <I2C_write>
  1005e4:	8009883a 	mov	r4,r16
  1005e8:	900b883a 	mov	r5,r18
  1005ec:	880d883a 	mov	r6,r17
  1005f0:	01002dc0 	call	1002dc <I2C_start>
  1005f4:	8009883a 	mov	r4,r16
  1005f8:	880b883a 	mov	r5,r17
  1005fc:	dfc00317 	ldw	ra,12(sp)
  100600:	dc800217 	ldw	r18,8(sp)
  100604:	dc400117 	ldw	r17,4(sp)
  100608:	dc000017 	ldw	r16,0(sp)
  10060c:	dec00404 	addi	sp,sp,16
  100610:	01003141 	jmpi	100314 <I2C_read>

00100614 <main>:
  100614:	defff304 	addi	sp,sp,-52
  100618:	dc800615 	stw	r18,24(sp)
  10061c:	04800834 	movhi	r18,32
  100620:	dfc00c15 	stw	ra,48(sp)
  100624:	ddc00b15 	stw	r23,44(sp)
  100628:	dd800a15 	stw	r22,40(sp)
  10062c:	dd400915 	stw	r21,36(sp)
  100630:	dd000815 	stw	r20,32(sp)
  100634:	dcc00715 	stw	r19,28(sp)
  100638:	dc400515 	stw	r17,20(sp)
  10063c:	dc000415 	stw	r16,16(sp)
  100640:	94881004 	addi	r18,r18,8256
  100644:	00800184 	movi	r2,6
  100648:	90800035 	stwio	r2,0(r18)
  10064c:	008001c4 	movi	r2,7
  100650:	90800035 	stwio	r2,0(r18)
  100654:	d0a00183 	ldbu	r2,-32762(gp)
  100658:	d4e01584 	addi	r19,gp,-32682
  10065c:	01000834 	movhi	r4,32
  100660:	10c03fcc 	andi	r3,r2,255
  100664:	1806d0ba 	srli	r3,r3,2
  100668:	100491ba 	slli	r2,r2,6
  10066c:	980f883a 	mov	r7,r19
  100670:	21080004 	addi	r4,r4,8192
  100674:	000b883a 	mov	r5,zero
  100678:	01800084 	movi	r6,2
  10067c:	d8000015 	stw	zero,0(sp)
  100680:	d8000115 	stw	zero,4(sp)
  100684:	d8000215 	stw	zero,8(sp)
  100688:	d0e01585 	stb	r3,-32682(gp)
  10068c:	98800045 	stb	r2,1(r19)
  100690:	01018800 	call	101880 <alt_avalon_spi_command>
  100694:	01000834 	movhi	r4,32
  100698:	01407574 	movhi	r5,469
  10069c:	018000b4 	movhi	r6,2
  1006a0:	21082004 	addi	r4,r4,8320
  1006a4:	29700004 	addi	r5,r5,-16384
  1006a8:	31a1a804 	addi	r6,r6,-31072
  1006ac:	05000834 	movhi	r20,32
  1006b0:	d4201644 	addi	r16,gp,-32679
  1006b4:	d8800315 	stw	r2,12(sp)
  1006b8:	a5083a04 	addi	r20,r20,8424
  1006bc:	01002680 	call	100268 <I2C_init>
  1006c0:	8023883a 	mov	r17,r16
  1006c4:	010041c0 	call	10041c <Configure_LM75>
  1006c8:	a0800037 	ldwio	r2,0(r20)
  1006cc:	d8800315 	stw	r2,12(sp)
  1006d0:	d8800317 	ldw	r2,12(sp)
  1006d4:	1080004c 	andi	r2,r2,1
  1006d8:	103ffb1e 	bne	r2,zero,1006c8 <_gp+0xffef7f00>
  1006dc:	01000834 	movhi	r4,32
  1006e0:	21026604 	addi	r4,r4,2456
  1006e4:	01401004 	movi	r5,64
  1006e8:	01003cc0 	call	1003cc <getFifoData>
  1006ec:	01000834 	movhi	r4,32
  1006f0:	21021604 	addi	r4,r4,2136
  1006f4:	000b883a 	mov	r5,zero
  1006f8:	01801004 	movi	r6,64
  1006fc:	01015200 	call	101520 <memset>
  100700:	d1200217 	ldw	r4,-32760(gp)
  100704:	d0201b45 	stb	zero,-32659(gp)
  100708:	d0a00317 	ldw	r2,-32756(gp)
  10070c:	20c00003 	ldbu	r3,0(r4)
  100710:	054000c4 	movi	r21,3
  100714:	01400b04 	movi	r5,44
  100718:	10c00005 	stb	r3,0(r2)
  10071c:	20c00083 	ldbu	r3,2(r4)
  100720:	10c00085 	stb	r3,2(r2)
  100724:	20c000c3 	ldbu	r3,3(r4)
  100728:	15400045 	stb	r21,1(r2)
  10072c:	10c000c5 	stb	r3,3(r2)
  100730:	20c00003 	ldbu	r3,0(r4)
  100734:	19416926 	beq	r3,r5,100cdc <main+0x6c8>
  100738:	28c01236 	bltu	r5,r3,100784 <main+0x170>
  10073c:	01400804 	movi	r5,32
  100740:	19402026 	beq	r3,r5,1007c4 <main+0x1b0>
  100744:	28c00a36 	bltu	r5,r3,100770 <main+0x15c>
  100748:	1802271e 	bne	r3,zero,100fe8 <main+0x9d4>
  10074c:	00c00104 	movi	r3,4
  100750:	10c00205 	stb	r3,8(r2)
  100754:	00c00444 	movi	r3,17
  100758:	10c00245 	stb	r3,9(r2)
  10075c:	00c00044 	movi	r3,1
  100760:	10c00285 	stb	r3,10(r2)
  100764:	100002c5 	stb	zero,11(r2)
  100768:	10c00305 	stb	r3,12(r2)
  10076c:	00001c06 	br	1007e0 <main+0x1cc>
  100770:	01000844 	movi	r4,33
  100774:	19003526 	beq	r3,r4,10084c <main+0x238>
  100778:	01000884 	movi	r4,34
  10077c:	19005326 	beq	r3,r4,1008cc <main+0x2b8>
  100780:	00021906 	br	100fe8 <main+0x9d4>
  100784:	01401584 	movi	r5,86
  100788:	19409326 	beq	r3,r5,1009d8 <main+0x3c4>
  10078c:	28c00536 	bltu	r5,r3,1007a4 <main+0x190>
  100790:	014014c4 	movi	r5,83
  100794:	19412f26 	beq	r3,r5,100c54 <main+0x640>
  100798:	01001544 	movi	r4,85
  10079c:	19006e26 	beq	r3,r4,100958 <main+0x344>
  1007a0:	00021106 	br	100fe8 <main+0x9d4>
  1007a4:	01001844 	movi	r4,97
  1007a8:	1900ff26 	beq	r3,r4,100ba8 <main+0x594>
  1007ac:	01001884 	movi	r4,98
  1007b0:	19020d1e 	bne	r3,r4,100fe8 <main+0x9d4>
  1007b4:	d0201505 	stb	zero,-32684(gp)
  1007b8:	05400044 	movi	r21,1
  1007bc:	05801404 	movi	r22,80
  1007c0:	0000ba06 	br	100aac <main+0x498>
  1007c4:	20800203 	ldbu	r2,8(r4)
  1007c8:	00c00044 	movi	r3,1
  1007cc:	10c00c1e 	bne	r2,r3,100800 <main+0x1ec>
  1007d0:	00800184 	movi	r2,6
  1007d4:	90800035 	stwio	r2,0(r18)
  1007d8:	d0a00317 	ldw	r2,-32756(gp)
  1007dc:	00c00044 	movi	r3,1
  1007e0:	10c00045 	stb	r3,1(r2)
  1007e4:	01800834 	movhi	r6,32
  1007e8:	01000834 	movhi	r4,32
  1007ec:	0005883a 	mov	r2,zero
  1007f0:	31821604 	addi	r6,r6,2136
  1007f4:	21083804 	addi	r4,r4,8416
  1007f8:	00c01004 	movi	r3,64
  1007fc:	0001fc06 	br	100ff0 <main+0x9dc>
  100800:	10000e26 	beq	r2,zero,10083c <main+0x228>
  100804:	01000084 	movi	r4,2
  100808:	11000e1e 	bne	r2,r4,100844 <main+0x230>
  10080c:	00800184 	movi	r2,6
  100810:	90800035 	stwio	r2,0(r18)
  100814:	0001883a 	nop
  100818:	0001883a 	nop
  10081c:	0001883a 	nop
  100820:	0001883a 	nop
  100824:	0001883a 	nop
  100828:	0001883a 	nop
  10082c:	0001883a 	nop
  100830:	0001883a 	nop
  100834:	0001883a 	nop
  100838:	0001883a 	nop
  10083c:	008001c4 	movi	r2,7
  100840:	003fe406 	br	1007d4 <_gp+0xffef800c>
  100844:	d0e01b45 	stb	r3,-32659(gp)
  100848:	003fe306 	br	1007d8 <_gp+0xffef8010>
  10084c:	01000104 	movi	r4,4
  100850:	010037c0 	call	10037c <Check_many_blocks>
  100854:	10803fcc 	andi	r2,r2,255
  100858:	103fe21e 	bne	r2,zero,1007e4 <_gp+0xffef801c>
  10085c:	d0201505 	stb	zero,-32684(gp)
  100860:	057fe004 	movi	r21,-128
  100864:	d1e00217 	ldw	r7,-32760(gp)
  100868:	d0a01503 	ldbu	r2,-32684(gp)
  10086c:	38c00083 	ldbu	r3,2(r7)
  100870:	10ffd92e 	bgeu	r2,r3,1007d8 <_gp+0xffef8010>
  100874:	1085883a 	add	r2,r2,r2
  100878:	1085883a 	add	r2,r2,r2
  10087c:	3887883a 	add	r3,r7,r2
  100880:	18c00204 	addi	r3,r3,8
  100884:	19000003 	ldbu	r4,0(r3)
  100888:	10800204 	addi	r2,r2,8
  10088c:	000b883a 	mov	r5,zero
  100890:	2548b03a 	or	r4,r4,r21
  100894:	19000005 	stb	r4,0(r3)
  100898:	01000834 	movhi	r4,32
  10089c:	d8000015 	stw	zero,0(sp)
  1008a0:	d8000115 	stw	zero,4(sp)
  1008a4:	d8000215 	stw	zero,8(sp)
  1008a8:	21080804 	addi	r4,r4,8224
  1008ac:	01800104 	movi	r6,4
  1008b0:	388f883a 	add	r7,r7,r2
  1008b4:	01018800 	call	101880 <alt_avalon_spi_command>
  1008b8:	d8800315 	stw	r2,12(sp)
  1008bc:	d0a01503 	ldbu	r2,-32684(gp)
  1008c0:	10800044 	addi	r2,r2,1
  1008c4:	d0a01505 	stb	r2,-32684(gp)
  1008c8:	003fe606 	br	100864 <_gp+0xffef809c>
  1008cc:	01000104 	movi	r4,4
  1008d0:	010037c0 	call	10037c <Check_many_blocks>
  1008d4:	10803fcc 	andi	r2,r2,255
  1008d8:	103fc21e 	bne	r2,zero,1007e4 <_gp+0xffef801c>
  1008dc:	d0201505 	stb	zero,-32684(gp)
  1008e0:	05400084 	movi	r21,2
  1008e4:	d1e00217 	ldw	r7,-32760(gp)
  1008e8:	d0a01503 	ldbu	r2,-32684(gp)
  1008ec:	d1600317 	ldw	r5,-32756(gp)
  1008f0:	38c00083 	ldbu	r3,2(r7)
  1008f4:	10c05b2e 	bgeu	r2,r3,100a64 <main+0x450>
  1008f8:	1085883a 	add	r2,r2,r2
  1008fc:	3887883a 	add	r3,r7,r2
  100900:	18c00204 	addi	r3,r3,8
  100904:	19000003 	ldbu	r4,0(r3)
  100908:	01800084 	movi	r6,2
  10090c:	21001fcc 	andi	r4,r4,127
  100910:	19000005 	stb	r4,0(r3)
  100914:	10c00204 	addi	r3,r2,8
  100918:	1085883a 	add	r2,r2,r2
  10091c:	10800284 	addi	r2,r2,10
  100920:	2885883a 	add	r2,r5,r2
  100924:	01000834 	movhi	r4,32
  100928:	dd400015 	stw	r21,0(sp)
  10092c:	d8800115 	stw	r2,4(sp)
  100930:	d8000215 	stw	zero,8(sp)
  100934:	21080804 	addi	r4,r4,8224
  100938:	000b883a 	mov	r5,zero
  10093c:	38cf883a 	add	r7,r7,r3
  100940:	01018800 	call	101880 <alt_avalon_spi_command>
  100944:	d8800315 	stw	r2,12(sp)
  100948:	d0a01503 	ldbu	r2,-32684(gp)
  10094c:	10800044 	addi	r2,r2,1
  100950:	d0a01505 	stb	r2,-32684(gp)
  100954:	003fe306 	br	1008e4 <_gp+0xffef811c>
  100958:	01000104 	movi	r4,4
  10095c:	010037c0 	call	10037c <Check_many_blocks>
  100960:	10803fcc 	andi	r2,r2,255
  100964:	103f9f1e 	bne	r2,zero,1007e4 <_gp+0xffef801c>
  100968:	d0201505 	stb	zero,-32684(gp)
  10096c:	057fe004 	movi	r21,-128
  100970:	d1e00217 	ldw	r7,-32760(gp)
  100974:	d0a01503 	ldbu	r2,-32684(gp)
  100978:	38c00083 	ldbu	r3,2(r7)
  10097c:	10ff962e 	bgeu	r2,r3,1007d8 <_gp+0xffef8010>
  100980:	1085883a 	add	r2,r2,r2
  100984:	1085883a 	add	r2,r2,r2
  100988:	3887883a 	add	r3,r7,r2
  10098c:	18c00204 	addi	r3,r3,8
  100990:	19000003 	ldbu	r4,0(r3)
  100994:	10800204 	addi	r2,r2,8
  100998:	01400044 	movi	r5,1
  10099c:	2548b03a 	or	r4,r4,r21
  1009a0:	19000005 	stb	r4,0(r3)
  1009a4:	01000834 	movhi	r4,32
  1009a8:	d8000015 	stw	zero,0(sp)
  1009ac:	d8000115 	stw	zero,4(sp)
  1009b0:	d8000215 	stw	zero,8(sp)
  1009b4:	21080804 	addi	r4,r4,8224
  1009b8:	01800104 	movi	r6,4
  1009bc:	388f883a 	add	r7,r7,r2
  1009c0:	01018800 	call	101880 <alt_avalon_spi_command>
  1009c4:	d8800315 	stw	r2,12(sp)
  1009c8:	d0a01503 	ldbu	r2,-32684(gp)
  1009cc:	10800044 	addi	r2,r2,1
  1009d0:	d0a01505 	stb	r2,-32684(gp)
  1009d4:	003fe606 	br	100970 <_gp+0xffef81a8>
  1009d8:	01000104 	movi	r4,4
  1009dc:	010037c0 	call	10037c <Check_many_blocks>
  1009e0:	10803fcc 	andi	r2,r2,255
  1009e4:	103f7f1e 	bne	r2,zero,1007e4 <_gp+0xffef801c>
  1009e8:	d0201505 	stb	zero,-32684(gp)
  1009ec:	05400084 	movi	r21,2
  1009f0:	d1e00217 	ldw	r7,-32760(gp)
  1009f4:	d0a01503 	ldbu	r2,-32684(gp)
  1009f8:	d1600317 	ldw	r5,-32756(gp)
  1009fc:	38c00083 	ldbu	r3,2(r7)
  100a00:	10c0182e 	bgeu	r2,r3,100a64 <main+0x450>
  100a04:	1085883a 	add	r2,r2,r2
  100a08:	3887883a 	add	r3,r7,r2
  100a0c:	18c00204 	addi	r3,r3,8
  100a10:	19000003 	ldbu	r4,0(r3)
  100a14:	01800084 	movi	r6,2
  100a18:	21001fcc 	andi	r4,r4,127
  100a1c:	19000005 	stb	r4,0(r3)
  100a20:	10c00204 	addi	r3,r2,8
  100a24:	1085883a 	add	r2,r2,r2
  100a28:	10800284 	addi	r2,r2,10
  100a2c:	2885883a 	add	r2,r5,r2
  100a30:	01000834 	movhi	r4,32
  100a34:	dd400015 	stw	r21,0(sp)
  100a38:	d8800115 	stw	r2,4(sp)
  100a3c:	d8000215 	stw	zero,8(sp)
  100a40:	21080804 	addi	r4,r4,8224
  100a44:	01400044 	movi	r5,1
  100a48:	38cf883a 	add	r7,r7,r3
  100a4c:	01018800 	call	101880 <alt_avalon_spi_command>
  100a50:	d8800315 	stw	r2,12(sp)
  100a54:	d0a01503 	ldbu	r2,-32684(gp)
  100a58:	10800044 	addi	r2,r2,1
  100a5c:	d0a01505 	stb	r2,-32684(gp)
  100a60:	003fe306 	br	1009f0 <_gp+0xffef8228>
  100a64:	00800044 	movi	r2,1
  100a68:	28800045 	stb	r2,1(r5)
  100a6c:	003f5d06 	br	1007e4 <_gp+0xffef801c>
  100a70:	1887883a 	add	r3,r3,r2
  100a74:	18c00203 	ldbu	r3,8(r3)
  100a78:	1800111e 	bne	r3,zero,100ac0 <main+0x4ac>
  100a7c:	d0e00317 	ldw	r3,-32756(gp)
  100a80:	1085883a 	add	r2,r2,r2
  100a84:	1085883a 	add	r2,r2,r2
  100a88:	1885883a 	add	r2,r3,r2
  100a8c:	d0e00183 	ldbu	r3,-32762(gp)
  100a90:	10000205 	stb	zero,8(r2)
  100a94:	10000245 	stb	zero,9(r2)
  100a98:	10000285 	stb	zero,10(r2)
  100a9c:	10c002c5 	stb	r3,11(r2)
  100aa0:	d0a01503 	ldbu	r2,-32684(gp)
  100aa4:	10800044 	addi	r2,r2,1
  100aa8:	d0a01505 	stb	r2,-32684(gp)
  100aac:	d0e00217 	ldw	r3,-32760(gp)
  100ab0:	d0a01503 	ldbu	r2,-32684(gp)
  100ab4:	19000083 	ldbu	r4,2(r3)
  100ab8:	113fed36 	bltu	r2,r4,100a70 <_gp+0xffef82a8>
  100abc:	003f4606 	br	1007d8 <_gp+0xffef8010>
  100ac0:	1d40351e 	bne	r3,r21,100b98 <main+0x584>
  100ac4:	01000834 	movhi	r4,32
  100ac8:	21082004 	addi	r4,r4,8320
  100acc:	01401204 	movi	r5,72
  100ad0:	000d883a 	mov	r6,zero
  100ad4:	01002dc0 	call	1002dc <I2C_start>
  100ad8:	01000834 	movhi	r4,32
  100adc:	21082004 	addi	r4,r4,8320
  100ae0:	000b883a 	mov	r5,zero
  100ae4:	a80d883a 	mov	r6,r21
  100ae8:	d8800315 	stw	r2,12(sp)
  100aec:	01003400 	call	100340 <I2C_write>
  100af0:	01000834 	movhi	r4,32
  100af4:	a80d883a 	mov	r6,r21
  100af8:	21082004 	addi	r4,r4,8320
  100afc:	01401204 	movi	r5,72
  100b00:	d8800315 	stw	r2,12(sp)
  100b04:	01002dc0 	call	1002dc <I2C_start>
  100b08:	01000834 	movhi	r4,32
  100b0c:	21082004 	addi	r4,r4,8320
  100b10:	000b883a 	mov	r5,zero
  100b14:	d8800315 	stw	r2,12(sp)
  100b18:	01003140 	call	100314 <I2C_read>
  100b1c:	11003fcc 	andi	r4,r2,255
  100b20:	2100201c 	xori	r4,r4,128
  100b24:	213fe004 	addi	r4,r4,-128
  100b28:	01400284 	movi	r5,10
  100b2c:	01014f80 	call	1014f8 <__mulsi3>
  100b30:	01000834 	movhi	r4,32
  100b34:	21082004 	addi	r4,r4,8320
  100b38:	a80b883a 	mov	r5,r21
  100b3c:	d0a0010d 	sth	r2,-32764(gp)
  100b40:	01003140 	call	100314 <I2C_read>
  100b44:	d8800315 	stw	r2,12(sp)
  100b48:	d8800317 	ldw	r2,12(sp)
  100b4c:	1080200c 	andi	r2,r2,128
  100b50:	10000326 	beq	r2,zero,100b60 <main+0x54c>
  100b54:	d0a0010b 	ldhu	r2,-32764(gp)
  100b58:	10800144 	addi	r2,r2,5
  100b5c:	d0a0010d 	sth	r2,-32764(gp)
  100b60:	d0e01503 	ldbu	r3,-32684(gp)
  100b64:	d1200217 	ldw	r4,-32760(gp)
  100b68:	18c5883a 	add	r2,r3,r3
  100b6c:	20c7883a 	add	r3,r4,r3
  100b70:	d1200317 	ldw	r4,-32756(gp)
  100b74:	18c00203 	ldbu	r3,8(r3)
  100b78:	1085883a 	add	r2,r2,r2
  100b7c:	2085883a 	add	r2,r4,r2
  100b80:	10c00205 	stb	r3,8(r2)
  100b84:	d0e0010b 	ldhu	r3,-32764(gp)
  100b88:	15800245 	stb	r22,9(r2)
  100b8c:	1808d23a 	srli	r4,r3,8
  100b90:	11000285 	stb	r4,10(r2)
  100b94:	003fc106 	br	100a9c <_gp+0xffef82d4>
  100b98:	d0a01b43 	ldbu	r2,-32659(gp)
  100b9c:	10800044 	addi	r2,r2,1
  100ba0:	d0a01b45 	stb	r2,-32659(gp)
  100ba4:	003fbe06 	br	100aa0 <_gp+0xffef82d8>
  100ba8:	01000104 	movi	r4,4
  100bac:	010037c0 	call	10037c <Check_many_blocks>
  100bb0:	10803fcc 	andi	r2,r2,255
  100bb4:	103f0b1e 	bne	r2,zero,1007e4 <_gp+0xffef801c>
  100bb8:	d0201505 	stb	zero,-32684(gp)
  100bbc:	d0a00217 	ldw	r2,-32760(gp)
  100bc0:	d0e01503 	ldbu	r3,-32684(gp)
  100bc4:	11000083 	ldbu	r4,2(r2)
  100bc8:	1901002e 	bgeu	r3,r4,100fcc <main+0x9b8>
  100bcc:	18c7883a 	add	r3,r3,r3
  100bd0:	18c7883a 	add	r3,r3,r3
  100bd4:	10c5883a 	add	r2,r2,r3
  100bd8:	10c00203 	ldbu	r3,8(r2)
  100bdc:	1800161e 	bne	r3,zero,100c38 <main+0x624>
  100be0:	10c00243 	ldbu	r3,9(r2)
  100be4:	1800141e 	bne	r3,zero,100c38 <main+0x624>
  100be8:	10c00283 	ldbu	r3,10(r2)
  100bec:	1800121e 	bne	r3,zero,100c38 <main+0x624>
  100bf0:	108002c3 	ldbu	r2,11(r2)
  100bf4:	01000834 	movhi	r4,32
  100bf8:	d8000015 	stw	zero,0(sp)
  100bfc:	d0a00185 	stb	r2,-32762(gp)
  100c00:	10803fcc 	andi	r2,r2,255
  100c04:	1006d0ba 	srli	r3,r2,2
  100c08:	100491ba 	slli	r2,r2,6
  100c0c:	d8000115 	stw	zero,4(sp)
  100c10:	d8000215 	stw	zero,8(sp)
  100c14:	21080004 	addi	r4,r4,8192
  100c18:	000b883a 	mov	r5,zero
  100c1c:	01800084 	movi	r6,2
  100c20:	d1e01584 	addi	r7,gp,-32682
  100c24:	d0e01585 	stb	r3,-32682(gp)
  100c28:	98800045 	stb	r2,1(r19)
  100c2c:	01018800 	call	101880 <alt_avalon_spi_command>
  100c30:	d8800315 	stw	r2,12(sp)
  100c34:	00000306 	br	100c44 <main+0x630>
  100c38:	d0a01b43 	ldbu	r2,-32659(gp)
  100c3c:	10800044 	addi	r2,r2,1
  100c40:	d0a01b45 	stb	r2,-32659(gp)
  100c44:	d0a01503 	ldbu	r2,-32684(gp)
  100c48:	10800044 	addi	r2,r2,1
  100c4c:	d0a01505 	stb	r2,-32684(gp)
  100c50:	003fda06 	br	100bbc <_gp+0xffef83f4>
  100c54:	20c00243 	ldbu	r3,9(r4)
  100c58:	180a963a 	slli	r5,r3,24
  100c5c:	20c00283 	ldbu	r3,10(r4)
  100c60:	1806943a 	slli	r3,r3,16
  100c64:	28c6b03a 	or	r3,r5,r3
  100c68:	21400303 	ldbu	r5,12(r4)
  100c6c:	194ab03a 	or	r5,r3,r5
  100c70:	20c002c3 	ldbu	r3,11(r4)
  100c74:	1806923a 	slli	r3,r3,8
  100c78:	28c6b03a 	or	r3,r5,r3
  100c7c:	d0e01a15 	stw	r3,-32664(gp)
  100c80:	20c00343 	ldbu	r3,13(r4)
  100c84:	21000203 	ldbu	r4,8(r4)
  100c88:	d0e01545 	stb	r3,-32683(gp)
  100c8c:	00c00044 	movi	r3,1
  100c90:	20fed426 	beq	r4,r3,1007e4 <_gp+0xffef801c>
  100c94:	2000d026 	beq	r4,zero,100fd8 <main+0x9c4>
  100c98:	01400084 	movi	r5,2
  100c9c:	217ed01e 	bne	r4,r5,1007e0 <_gp+0xffef8018>
  100ca0:	00800834 	movhi	r2,32
  100ca4:	10882904 	addi	r2,r2,8356
  100ca8:	010000c4 	movi	r4,3
  100cac:	11000035 	stwio	r4,0(r2)
  100cb0:	01400834 	movhi	r5,32
  100cb4:	29482b04 	addi	r5,r5,8364
  100cb8:	29000037 	ldwio	r4,0(r5)
  100cbc:	00800044 	movi	r2,1
  100cc0:	20fffd26 	beq	r4,r3,100cb8 <_gp+0xffef84f0>
  100cc4:	00c00834 	movhi	r3,32
  100cc8:	18c82804 	addi	r3,r3,8352
  100ccc:	18800035 	stwio	r2,0(r3)
  100cd0:	d0e00317 	ldw	r3,-32756(gp)
  100cd4:	18800045 	stb	r2,1(r3)
  100cd8:	003ec206 	br	1007e4 <_gp+0xffef801c>
  100cdc:	20c00243 	ldbu	r3,9(r4)
  100ce0:	d0e01a15 	stw	r3,-32664(gp)
  100ce4:	18000526 	beq	r3,zero,100cfc <main+0x6e8>
  100ce8:	d1201917 	ldw	r4,-32668(gp)
  100cec:	18ffffc4 	addi	r3,r3,-1
  100cf0:	20c04126 	beq	r4,r3,100df8 <main+0x7e4>
  100cf4:	00c00184 	movi	r3,6
  100cf8:	003eb906 	br	1007e0 <_gp+0xffef8018>
  100cfc:	01000834 	movhi	r4,32
  100d00:	05800084 	movi	r22,2
  100d04:	05ffe004 	movi	r23,-128
  100d08:	d8000015 	stw	zero,0(sp)
  100d0c:	d8000115 	stw	zero,4(sp)
  100d10:	d8000215 	stw	zero,8(sp)
  100d14:	21080804 	addi	r4,r4,8224
  100d18:	000b883a 	mov	r5,zero
  100d1c:	01800104 	movi	r6,4
  100d20:	d1e01644 	addi	r7,gp,-32679
  100d24:	85800045 	stb	r22,1(r16)
  100d28:	d5e01645 	stb	r23,-32679(gp)
  100d2c:	80000085 	stb	zero,2(r16)
  100d30:	800000c5 	stb	zero,3(r16)
  100d34:	01018800 	call	101880 <alt_avalon_spi_command>
  100d38:	d8800315 	stw	r2,12(sp)
  100d3c:	d0a00217 	ldw	r2,-32760(gp)
  100d40:	85800045 	stb	r22,1(r16)
  100d44:	d5e01645 	stb	r23,-32679(gp)
  100d48:	10800203 	ldbu	r2,8(r2)
  100d4c:	80000085 	stb	zero,2(r16)
  100d50:	05800084 	movi	r22,2
  100d54:	15800426 	beq	r2,r22,100d68 <main+0x754>
  100d58:	00c000c4 	movi	r3,3
  100d5c:	10c00e26 	beq	r2,r3,100d98 <main+0x784>
  100d60:	00c00044 	movi	r3,1
  100d64:	10c0241e 	bne	r2,r3,100df8 <main+0x7e4>
  100d68:	01000834 	movhi	r4,32
  100d6c:	d8000015 	stw	zero,0(sp)
  100d70:	d8000115 	stw	zero,4(sp)
  100d74:	d8000215 	stw	zero,8(sp)
  100d78:	21080804 	addi	r4,r4,8224
  100d7c:	000b883a 	mov	r5,zero
  100d80:	01800104 	movi	r6,4
  100d84:	d1e01644 	addi	r7,gp,-32679
  100d88:	808000c5 	stb	r2,3(r16)
  100d8c:	01018800 	call	101880 <alt_avalon_spi_command>
  100d90:	d8800315 	stw	r2,12(sp)
  100d94:	00001806 	br	100df8 <main+0x7e4>
  100d98:	01000834 	movhi	r4,32
  100d9c:	21080804 	addi	r4,r4,8224
  100da0:	000b883a 	mov	r5,zero
  100da4:	01800104 	movi	r6,4
  100da8:	d1e01644 	addi	r7,gp,-32679
  100dac:	d8000015 	stw	zero,0(sp)
  100db0:	d8000115 	stw	zero,4(sp)
  100db4:	d8000215 	stw	zero,8(sp)
  100db8:	808000c5 	stb	r2,3(r16)
  100dbc:	01018800 	call	101880 <alt_avalon_spi_command>
  100dc0:	01000834 	movhi	r4,32
  100dc4:	dd800015 	stw	r22,0(sp)
  100dc8:	dc400115 	stw	r17,4(sp)
  100dcc:	d8000215 	stw	zero,8(sp)
  100dd0:	21080804 	addi	r4,r4,8224
  100dd4:	000b883a 	mov	r5,zero
  100dd8:	b00d883a 	mov	r6,r22
  100ddc:	d1e01644 	addi	r7,gp,-32679
  100de0:	d8800315 	stw	r2,12(sp)
  100de4:	d0201645 	stb	zero,-32679(gp)
  100de8:	85400045 	stb	r21,1(r16)
  100dec:	01018800 	call	101880 <alt_avalon_spi_command>
  100df0:	d8800315 	stw	r2,12(sp)
  100df4:	00007506 	br	100fcc <main+0x9b8>
  100df8:	d0201605 	stb	zero,-32680(gp)
  100dfc:	05400744 	movi	r21,29
  100e00:	058000c4 	movi	r22,3
  100e04:	d0a01603 	ldbu	r2,-32680(gp)
  100e08:	a8800f36 	bltu	r21,r2,100e48 <main+0x834>
  100e0c:	01800084 	movi	r6,2
  100e10:	01000834 	movhi	r4,32
  100e14:	d9800015 	stw	r6,0(sp)
  100e18:	dc400115 	stw	r17,4(sp)
  100e1c:	d8000215 	stw	zero,8(sp)
  100e20:	21080804 	addi	r4,r4,8224
  100e24:	000b883a 	mov	r5,zero
  100e28:	d1e01644 	addi	r7,gp,-32679
  100e2c:	d0201645 	stb	zero,-32679(gp)
  100e30:	85800045 	stb	r22,1(r16)
  100e34:	01018800 	call	101880 <alt_avalon_spi_command>
  100e38:	d8800315 	stw	r2,12(sp)
  100e3c:	80800043 	ldbu	r2,1(r16)
  100e40:	1080004c 	andi	r2,r2,1
  100e44:	10000426 	beq	r2,zero,100e58 <main+0x844>
  100e48:	d0201505 	stb	zero,-32684(gp)
  100e4c:	054007c4 	movi	r21,31
  100e50:	05bfe004 	movi	r22,-128
  100e54:	00000606 	br	100e70 <main+0x85c>
  100e58:	d0a01603 	ldbu	r2,-32680(gp)
  100e5c:	01000784 	movi	r4,30
  100e60:	10800044 	addi	r2,r2,1
  100e64:	d0a01605 	stb	r2,-32680(gp)
  100e68:	01017840 	call	101784 <usleep>
  100e6c:	003fe506 	br	100e04 <_gp+0xffef863c>
  100e70:	d0a01503 	ldbu	r2,-32684(gp)
  100e74:	a8801736 	bltu	r21,r2,100ed4 <main+0x8c0>
  100e78:	00c00104 	movi	r3,4
  100e7c:	88c00045 	stb	r3,1(r17)
  100e80:	d0e00217 	ldw	r3,-32760(gp)
  100e84:	88000085 	stb	zero,2(r17)
  100e88:	01000834 	movhi	r4,32
  100e8c:	1885883a 	add	r2,r3,r2
  100e90:	10800283 	ldbu	r2,10(r2)
  100e94:	21080804 	addi	r4,r4,8224
  100e98:	000b883a 	mov	r5,zero
  100e9c:	888000c5 	stb	r2,3(r17)
  100ea0:	d8000015 	stw	zero,0(sp)
  100ea4:	d8000115 	stw	zero,4(sp)
  100ea8:	d8000215 	stw	zero,8(sp)
  100eac:	01800104 	movi	r6,4
  100eb0:	d1e01644 	addi	r7,gp,-32679
  100eb4:	d5a01645 	stb	r22,-32679(gp)
  100eb8:	01018800 	call	101880 <alt_avalon_spi_command>
  100ebc:	d8800315 	stw	r2,12(sp)
  100ec0:	d0a01503 	ldbu	r2,-32684(gp)
  100ec4:	d0201605 	stb	zero,-32680(gp)
  100ec8:	10800044 	addi	r2,r2,1
  100ecc:	d0a01505 	stb	r2,-32684(gp)
  100ed0:	003fe706 	br	100e70 <_gp+0xffef86a8>
  100ed4:	d0201605 	stb	zero,-32680(gp)
  100ed8:	054000c4 	movi	r21,3
  100edc:	05800084 	movi	r22,2
  100ee0:	8d400045 	stb	r21,1(r17)
  100ee4:	01000834 	movhi	r4,32
  100ee8:	dd800015 	stw	r22,0(sp)
  100eec:	dc400115 	stw	r17,4(sp)
  100ef0:	d8000215 	stw	zero,8(sp)
  100ef4:	21080804 	addi	r4,r4,8224
  100ef8:	000b883a 	mov	r5,zero
  100efc:	01800084 	movi	r6,2
  100f00:	d1e01644 	addi	r7,gp,-32679
  100f04:	d0201645 	stb	zero,-32679(gp)
  100f08:	01018800 	call	101880 <alt_avalon_spi_command>
  100f0c:	d8800315 	stw	r2,12(sp)
  100f10:	88800043 	ldbu	r2,1(r17)
  100f14:	1080004c 	andi	r2,r2,1
  100f18:	1000061e 	bne	r2,zero,100f34 <main+0x920>
  100f1c:	d0a01603 	ldbu	r2,-32680(gp)
  100f20:	01000784 	movi	r4,30
  100f24:	10800044 	addi	r2,r2,1
  100f28:	d0a01605 	stb	r2,-32680(gp)
  100f2c:	01017840 	call	101784 <usleep>
  100f30:	003feb06 	br	100ee0 <_gp+0xffef8718>
  100f34:	d0e01a17 	ldw	r3,-32664(gp)
  100f38:	00803fc4 	movi	r2,255
  100f3c:	1880211e 	bne	r3,r2,100fc4 <main+0x9b0>
  100f40:	d0201605 	stb	zero,-32680(gp)
  100f44:	05400744 	movi	r21,29
  100f48:	058000c4 	movi	r22,3
  100f4c:	d0a01603 	ldbu	r2,-32680(gp)
  100f50:	a8800f36 	bltu	r21,r2,100f90 <main+0x97c>
  100f54:	8d800045 	stb	r22,1(r17)
  100f58:	01800084 	movi	r6,2
  100f5c:	01000834 	movhi	r4,32
  100f60:	d9800015 	stw	r6,0(sp)
  100f64:	dc400115 	stw	r17,4(sp)
  100f68:	d8000215 	stw	zero,8(sp)
  100f6c:	21080804 	addi	r4,r4,8224
  100f70:	000b883a 	mov	r5,zero
  100f74:	d1e01644 	addi	r7,gp,-32679
  100f78:	d0201645 	stb	zero,-32679(gp)
  100f7c:	01018800 	call	101880 <alt_avalon_spi_command>
  100f80:	d8800315 	stw	r2,12(sp)
  100f84:	88800043 	ldbu	r2,1(r17)
  100f88:	1080100c 	andi	r2,r2,64
  100f8c:	10000726 	beq	r2,zero,100fac <main+0x998>
  100f90:	d0e01603 	ldbu	r3,-32680(gp)
  100f94:	00800784 	movi	r2,30
  100f98:	18800a1e 	bne	r3,r2,100fc4 <main+0x9b0>
  100f9c:	d0a01b43 	ldbu	r2,-32659(gp)
  100fa0:	10800044 	addi	r2,r2,1
  100fa4:	d0a01b45 	stb	r2,-32659(gp)
  100fa8:	00000606 	br	100fc4 <main+0x9b0>
  100fac:	d0a01603 	ldbu	r2,-32680(gp)
  100fb0:	01000784 	movi	r4,30
  100fb4:	10800044 	addi	r2,r2,1
  100fb8:	d0a01605 	stb	r2,-32680(gp)
  100fbc:	01017840 	call	101784 <usleep>
  100fc0:	003fe206 	br	100f4c <_gp+0xffef8784>
  100fc4:	d0a01a17 	ldw	r2,-32664(gp)
  100fc8:	d0a01915 	stw	r2,-32668(gp)
  100fcc:	d0e01b43 	ldbu	r3,-32659(gp)
  100fd0:	d0a00317 	ldw	r2,-32756(gp)
  100fd4:	18000226 	beq	r3,zero,100fe0 <main+0x9cc>
  100fd8:	00c00144 	movi	r3,5
  100fdc:	003e0006 	br	1007e0 <_gp+0xffef8018>
  100fe0:	00c00044 	movi	r3,1
  100fe4:	003dfe06 	br	1007e0 <_gp+0xffef8018>
  100fe8:	00c00084 	movi	r3,2
  100fec:	003dfc06 	br	1007e0 <_gp+0xffef8018>
  100ff0:	118b883a 	add	r5,r2,r6
  100ff4:	29400017 	ldw	r5,0(r5)
  100ff8:	21400035 	stwio	r5,0(r4)
  100ffc:	10800104 	addi	r2,r2,4
  101000:	10fffb1e 	bne	r2,r3,100ff0 <_gp+0xffef8828>
  101004:	003db006 	br	1006c8 <_gp+0xffef7f00>

00101008 <ReverseBitOrder>:
  101008:	21003fcc 	andi	r4,r4,255
  10100c:	2105883a 	add	r2,r4,r4
  101010:	2008d07a 	srli	r4,r4,1
  101014:	10802a8c 	andi	r2,r2,170
  101018:	2100154c 	andi	r4,r4,85
  10101c:	1108b03a 	or	r4,r2,r4
  101020:	2105883a 	add	r2,r4,r4
  101024:	2008d0ba 	srli	r4,r4,2
  101028:	1085883a 	add	r2,r2,r2
  10102c:	20c00ccc 	andi	r3,r4,51
  101030:	1100330c 	andi	r4,r2,204
  101034:	20c8b03a 	or	r4,r4,r3
  101038:	2004913a 	slli	r2,r4,4
  10103c:	2008d13a 	srli	r4,r4,4
  101040:	1104b03a 	or	r2,r2,r4
  101044:	f800283a 	ret

00101048 <FlashSpiFastRead>:
  101048:	d1201d05 	stb	r4,-32652(gp)
  10104c:	f800283a 	ret

00101050 <CyFxSpiWaitForStatus>:
  101050:	defff504 	addi	sp,sp,-44
  101054:	dd400915 	stw	r21,36(sp)
  101058:	dd000815 	stw	r20,32(sp)
  10105c:	dcc00715 	stw	r19,28(sp)
  101060:	dc800615 	stw	r18,24(sp)
  101064:	dc400515 	stw	r17,20(sp)
  101068:	dc000415 	stw	r16,16(sp)
  10106c:	dfc00a15 	stw	ra,40(sp)
  101070:	2023883a 	mov	r17,r4
  101074:	2825883a 	mov	r18,r5
  101078:	0409c444 	movi	r16,10001
  10107c:	04c01804 	movi	r19,96
  101080:	053fe804 	movi	r20,-96
  101084:	05400084 	movi	r21,2
  101088:	8809883a 	mov	r4,r17
  10108c:	900b883a 	mov	r5,r18
  101090:	01800044 	movi	r6,1
  101094:	d9c00384 	addi	r7,sp,14
  101098:	d8000015 	stw	zero,0(sp)
  10109c:	d8000115 	stw	zero,4(sp)
  1010a0:	d8000215 	stw	zero,8(sp)
  1010a4:	dcc00385 	stb	r19,14(sp)
  1010a8:	01018800 	call	101880 <alt_avalon_spi_command>
  1010ac:	d8800304 	addi	r2,sp,12
  1010b0:	dd400015 	stw	r21,0(sp)
  1010b4:	d8800115 	stw	r2,4(sp)
  1010b8:	d8000215 	stw	zero,8(sp)
  1010bc:	8809883a 	mov	r4,r17
  1010c0:	900b883a 	mov	r5,r18
  1010c4:	01800044 	movi	r6,1
  1010c8:	d9c00384 	addi	r7,sp,14
  1010cc:	843fffc4 	addi	r16,r16,-1
  1010d0:	dd000385 	stb	r20,14(sp)
  1010d4:	01018800 	call	101880 <alt_avalon_spi_command>
  1010d8:	80000926 	beq	r16,zero,101100 <CyFxSpiWaitForStatus+0xb0>
  1010dc:	d8800303 	ldbu	r2,12(sp)
  1010e0:	10c03fcc 	andi	r3,r2,255
  1010e4:	18c0201c 	xori	r3,r3,128
  1010e8:	18ffe004 	addi	r3,r3,-128
  1010ec:	183fe616 	blt	r3,zero,101088 <_gp+0xffef88c0>
  1010f0:	1080100c 	andi	r2,r2,64
  1010f4:	103fe426 	beq	r2,zero,101088 <_gp+0xffef88c0>
  1010f8:	0005883a 	mov	r2,zero
  1010fc:	00000106 	br	101104 <CyFxSpiWaitForStatus+0xb4>
  101100:	00800044 	movi	r2,1
  101104:	dfc00a17 	ldw	ra,40(sp)
  101108:	dd400917 	ldw	r21,36(sp)
  10110c:	dd000817 	ldw	r20,32(sp)
  101110:	dcc00717 	ldw	r19,28(sp)
  101114:	dc800617 	ldw	r18,24(sp)
  101118:	dc400517 	ldw	r17,20(sp)
  10111c:	dc000417 	ldw	r16,16(sp)
  101120:	dec00b04 	addi	sp,sp,44
  101124:	f800283a 	ret

00101128 <FlashSpiTransfer>:
  101128:	defff104 	addi	sp,sp,-60
  10112c:	00c00044 	movi	r3,1
  101130:	dc000515 	stw	r16,20(sp)
  101134:	dfc00e15 	stw	ra,56(sp)
  101138:	df000d15 	stw	fp,52(sp)
  10113c:	ddc00c15 	stw	r23,48(sp)
  101140:	dd800b15 	stw	r22,44(sp)
  101144:	dd400a15 	stw	r21,40(sp)
  101148:	dd000915 	stw	r20,36(sp)
  10114c:	dcc00815 	stw	r19,32(sp)
  101150:	dc800715 	stw	r18,28(sp)
  101154:	dc400615 	stw	r17,24(sp)
  101158:	d0e01d05 	stb	r3,-32652(gp)
  10115c:	3c3fffcc 	andi	r16,r7,65535
  101160:	8000021e 	bne	r16,zero,10116c <FlashSpiTransfer+0x44>
  101164:	0005883a 	mov	r2,zero
  101168:	00004b06 	br	101298 <FlashSpiTransfer+0x170>
  10116c:	39c03fcc 	andi	r7,r7,255
  101170:	3800461e 	bne	r7,zero,10128c <FlashSpiTransfer+0x164>
  101174:	300c923a 	slli	r6,r6,8
  101178:	dc400f17 	ldw	r17,60(sp)
  10117c:	8020d23a 	srli	r16,r16,8
  101180:	2027883a 	mov	r19,r4
  101184:	2829883a 	mov	r20,r5
  101188:	002b883a 	mov	r21,zero
  10118c:	3465c83a 	sub	r18,r6,r17
  101190:	05801004 	movi	r22,64
  101194:	05c00044 	movi	r23,1
  101198:	073ff004 	movi	fp,-64
  10119c:	80bfffcc 	andi	r2,r16,65535
  1011a0:	8c8b883a 	add	r5,r17,r18
  1011a4:	10003b26 	beq	r2,zero,101294 <FlashSpiTransfer+0x16c>
  1011a8:	2808d43a 	srli	r4,r5,16
  1011ac:	d9400415 	stw	r5,16(sp)
  1011b0:	21003fcc 	andi	r4,r4,255
  1011b4:	01010080 	call	101008 <ReverseBitOrder>
  1011b8:	d9400417 	ldw	r5,16(sp)
  1011bc:	d8800345 	stb	r2,13(sp)
  1011c0:	2808d23a 	srli	r4,r5,8
  1011c4:	21003fcc 	andi	r4,r4,255
  1011c8:	01010080 	call	101008 <ReverseBitOrder>
  1011cc:	d8800385 	stb	r2,14(sp)
  1011d0:	d8801017 	ldw	r2,64(sp)
  1011d4:	d80003c5 	stb	zero,15(sp)
  1011d8:	10001226 	beq	r2,zero,101224 <FlashSpiTransfer+0xfc>
  1011dc:	d0a01d07 	ldb	r2,-32652(gp)
  1011e0:	df000305 	stb	fp,12(sp)
  1011e4:	1000061e 	bne	r2,zero,101200 <FlashSpiTransfer+0xd8>
  1011e8:	9809883a 	mov	r4,r19
  1011ec:	a00b883a 	mov	r5,r20
  1011f0:	01010500 	call	101050 <CyFxSpiWaitForStatus>
  1011f4:	102b883a 	mov	r21,r2
  1011f8:	10803fcc 	andi	r2,r2,255
  1011fc:	103fd926 	beq	r2,zero,101164 <_gp+0xffef899c>
  101200:	00804004 	movi	r2,256
  101204:	d8800015 	stw	r2,0(sp)
  101208:	dc400115 	stw	r17,4(sp)
  10120c:	d8000215 	stw	zero,8(sp)
  101210:	9809883a 	mov	r4,r19
  101214:	a00b883a 	mov	r5,r20
  101218:	01800104 	movi	r6,4
  10121c:	d9c00304 	addi	r7,sp,12
  101220:	00001606 	br	10127c <FlashSpiTransfer+0x154>
  101224:	9809883a 	mov	r4,r19
  101228:	a00b883a 	mov	r5,r20
  10122c:	dd800305 	stb	r22,12(sp)
  101230:	01010500 	call	101050 <CyFxSpiWaitForStatus>
  101234:	102b883a 	mov	r21,r2
  101238:	10803fcc 	andi	r2,r2,255
  10123c:	1000151e 	bne	r2,zero,101294 <FlashSpiTransfer+0x16c>
  101240:	9809883a 	mov	r4,r19
  101244:	a00b883a 	mov	r5,r20
  101248:	01800104 	movi	r6,4
  10124c:	d9c00304 	addi	r7,sp,12
  101250:	d8000015 	stw	zero,0(sp)
  101254:	d8000115 	stw	zero,4(sp)
  101258:	ddc00215 	stw	r23,8(sp)
  10125c:	01018800 	call	101880 <alt_avalon_spi_command>
  101260:	9809883a 	mov	r4,r19
  101264:	d8000015 	stw	zero,0(sp)
  101268:	d8000115 	stw	zero,4(sp)
  10126c:	d8000215 	stw	zero,8(sp)
  101270:	a00b883a 	mov	r5,r20
  101274:	01804004 	movi	r6,256
  101278:	880f883a 	mov	r7,r17
  10127c:	01018800 	call	101880 <alt_avalon_spi_command>
  101280:	8c404004 	addi	r17,r17,256
  101284:	843fffc4 	addi	r16,r16,-1
  101288:	003fc406 	br	10119c <_gp+0xffef89d4>
  10128c:	1805883a 	mov	r2,r3
  101290:	00000106 	br	101298 <FlashSpiTransfer+0x170>
  101294:	a805883a 	mov	r2,r21
  101298:	dfc00e17 	ldw	ra,56(sp)
  10129c:	df000d17 	ldw	fp,52(sp)
  1012a0:	ddc00c17 	ldw	r23,48(sp)
  1012a4:	dd800b17 	ldw	r22,44(sp)
  1012a8:	dd400a17 	ldw	r21,40(sp)
  1012ac:	dd000917 	ldw	r20,36(sp)
  1012b0:	dcc00817 	ldw	r19,32(sp)
  1012b4:	dc800717 	ldw	r18,28(sp)
  1012b8:	dc400617 	ldw	r17,24(sp)
  1012bc:	dc000517 	ldw	r16,20(sp)
  1012c0:	dec00f04 	addi	sp,sp,60
  1012c4:	f800283a 	ret

001012c8 <FlashSpiEraseSector>:
  1012c8:	defff504 	addi	sp,sp,-44
  1012cc:	dc000515 	stw	r16,20(sp)
  1012d0:	3021883a 	mov	r16,r6
  1012d4:	dcc00815 	stw	r19,32(sp)
  1012d8:	00801804 	movi	r2,96
  1012dc:	3827883a 	mov	r19,r7
  1012e0:	d8000015 	stw	zero,0(sp)
  1012e4:	d8000115 	stw	zero,4(sp)
  1012e8:	d8000215 	stw	zero,8(sp)
  1012ec:	01800044 	movi	r6,1
  1012f0:	d9c00304 	addi	r7,sp,12
  1012f4:	84003fcc 	andi	r16,r16,255
  1012f8:	dc800715 	stw	r18,28(sp)
  1012fc:	dc400615 	stw	r17,24(sp)
  101300:	dfc00a15 	stw	ra,40(sp)
  101304:	dd000915 	stw	r20,36(sp)
  101308:	2023883a 	mov	r17,r4
  10130c:	2825883a 	mov	r18,r5
  101310:	d8800305 	stb	r2,12(sp)
  101314:	01018800 	call	101880 <alt_avalon_spi_command>
  101318:	80000f26 	beq	r16,zero,101358 <FlashSpiEraseSector+0x90>
  10131c:	008006c4 	movi	r2,27
  101320:	99003fcc 	andi	r4,r19,255
  101324:	d8800305 	stb	r2,12(sp)
  101328:	01010080 	call	101008 <ReverseBitOrder>
  10132c:	8809883a 	mov	r4,r17
  101330:	d8000015 	stw	zero,0(sp)
  101334:	d8000115 	stw	zero,4(sp)
  101338:	d8000215 	stw	zero,8(sp)
  10133c:	900b883a 	mov	r5,r18
  101340:	01800104 	movi	r6,4
  101344:	d9c00304 	addi	r7,sp,12
  101348:	d8800345 	stb	r2,13(sp)
  10134c:	d8000385 	stb	zero,14(sp)
  101350:	d80003c5 	stb	zero,15(sp)
  101354:	01018800 	call	101880 <alt_avalon_spi_command>
  101358:	00bfe804 	movi	r2,-96
  10135c:	04000bb4 	movhi	r16,46
  101360:	d8800305 	stb	r2,12(sp)
  101364:	8431b044 	addi	r16,r16,-14655
  101368:	04c00044 	movi	r19,1
  10136c:	dd000404 	addi	r20,sp,16
  101370:	dcc00015 	stw	r19,0(sp)
  101374:	dd000115 	stw	r20,4(sp)
  101378:	d8000215 	stw	zero,8(sp)
  10137c:	8809883a 	mov	r4,r17
  101380:	900b883a 	mov	r5,r18
  101384:	01800044 	movi	r6,1
  101388:	d9c00304 	addi	r7,sp,12
  10138c:	843fffc4 	addi	r16,r16,-1
  101390:	01018800 	call	101880 <alt_avalon_spi_command>
  101394:	80000426 	beq	r16,zero,1013a8 <FlashSpiEraseSector+0xe0>
  101398:	d8800407 	ldb	r2,16(sp)
  10139c:	103ff416 	blt	r2,zero,101370 <_gp+0xffef8ba8>
  1013a0:	0005883a 	mov	r2,zero
  1013a4:	00000106 	br	1013ac <FlashSpiEraseSector+0xe4>
  1013a8:	00800044 	movi	r2,1
  1013ac:	dfc00a17 	ldw	ra,40(sp)
  1013b0:	dd000917 	ldw	r20,36(sp)
  1013b4:	dcc00817 	ldw	r19,32(sp)
  1013b8:	dc800717 	ldw	r18,28(sp)
  1013bc:	dc400617 	ldw	r17,24(sp)
  1013c0:	dc000517 	ldw	r16,20(sp)
  1013c4:	dec00b04 	addi	sp,sp,44
  1013c8:	f800283a 	ret

001013cc <udivmodsi4>:
  1013cc:	2900182e 	bgeu	r5,r4,101430 <udivmodsi4+0x64>
  1013d0:	28001716 	blt	r5,zero,101430 <udivmodsi4+0x64>
  1013d4:	00800804 	movi	r2,32
  1013d8:	00c00044 	movi	r3,1
  1013dc:	00000206 	br	1013e8 <udivmodsi4+0x1c>
  1013e0:	10001126 	beq	r2,zero,101428 <udivmodsi4+0x5c>
  1013e4:	28000516 	blt	r5,zero,1013fc <udivmodsi4+0x30>
  1013e8:	294b883a 	add	r5,r5,r5
  1013ec:	10bfffc4 	addi	r2,r2,-1
  1013f0:	18c7883a 	add	r3,r3,r3
  1013f4:	293ffa36 	bltu	r5,r4,1013e0 <_gp+0xffef8c18>
  1013f8:	18000b26 	beq	r3,zero,101428 <udivmodsi4+0x5c>
  1013fc:	0005883a 	mov	r2,zero
  101400:	21400236 	bltu	r4,r5,10140c <udivmodsi4+0x40>
  101404:	2149c83a 	sub	r4,r4,r5
  101408:	10c4b03a 	or	r2,r2,r3
  10140c:	1806d07a 	srli	r3,r3,1
  101410:	280ad07a 	srli	r5,r5,1
  101414:	183ffa1e 	bne	r3,zero,101400 <_gp+0xffef8c38>
  101418:	3000011e 	bne	r6,zero,101420 <udivmodsi4+0x54>
  10141c:	f800283a 	ret
  101420:	2005883a 	mov	r2,r4
  101424:	f800283a 	ret
  101428:	0005883a 	mov	r2,zero
  10142c:	003ffa06 	br	101418 <_gp+0xffef8c50>
  101430:	00c00044 	movi	r3,1
  101434:	003ff106 	br	1013fc <_gp+0xffef8c34>

00101438 <__divsi3>:
  101438:	defffe04 	addi	sp,sp,-8
  10143c:	dfc00115 	stw	ra,4(sp)
  101440:	dc000015 	stw	r16,0(sp)
  101444:	20000b16 	blt	r4,zero,101474 <__divsi3+0x3c>
  101448:	0021883a 	mov	r16,zero
  10144c:	28000c16 	blt	r5,zero,101480 <__divsi3+0x48>
  101450:	000d883a 	mov	r6,zero
  101454:	01013cc0 	call	1013cc <udivmodsi4>
  101458:	0407c83a 	sub	r3,zero,r16
  10145c:	1884f03a 	xor	r2,r3,r2
  101460:	1405883a 	add	r2,r2,r16
  101464:	dfc00117 	ldw	ra,4(sp)
  101468:	dc000017 	ldw	r16,0(sp)
  10146c:	dec00204 	addi	sp,sp,8
  101470:	f800283a 	ret
  101474:	0109c83a 	sub	r4,zero,r4
  101478:	04000044 	movi	r16,1
  10147c:	283ff40e 	bge	r5,zero,101450 <_gp+0xffef8c88>
  101480:	014bc83a 	sub	r5,zero,r5
  101484:	8400005c 	xori	r16,r16,1
  101488:	003ff106 	br	101450 <_gp+0xffef8c88>

0010148c <__modsi3>:
  10148c:	defffd04 	addi	sp,sp,-12
  101490:	dfc00215 	stw	ra,8(sp)
  101494:	dc400115 	stw	r17,4(sp)
  101498:	dc000015 	stw	r16,0(sp)
  10149c:	20000c16 	blt	r4,zero,1014d0 <__modsi3+0x44>
  1014a0:	0023883a 	mov	r17,zero
  1014a4:	0021883a 	mov	r16,zero
  1014a8:	28000d16 	blt	r5,zero,1014e0 <__modsi3+0x54>
  1014ac:	01800044 	movi	r6,1
  1014b0:	01013cc0 	call	1013cc <udivmodsi4>
  1014b4:	1404f03a 	xor	r2,r2,r16
  1014b8:	8885883a 	add	r2,r17,r2
  1014bc:	dfc00217 	ldw	ra,8(sp)
  1014c0:	dc400117 	ldw	r17,4(sp)
  1014c4:	dc000017 	ldw	r16,0(sp)
  1014c8:	dec00304 	addi	sp,sp,12
  1014cc:	f800283a 	ret
  1014d0:	0109c83a 	sub	r4,zero,r4
  1014d4:	04400044 	movi	r17,1
  1014d8:	043fffc4 	movi	r16,-1
  1014dc:	283ff30e 	bge	r5,zero,1014ac <_gp+0xffef8ce4>
  1014e0:	014bc83a 	sub	r5,zero,r5
  1014e4:	003ff106 	br	1014ac <_gp+0xffef8ce4>

001014e8 <__udivsi3>:
  1014e8:	000d883a 	mov	r6,zero
  1014ec:	01013cc1 	jmpi	1013cc <udivmodsi4>

001014f0 <__umodsi3>:
  1014f0:	01800044 	movi	r6,1
  1014f4:	01013cc1 	jmpi	1013cc <udivmodsi4>

001014f8 <__mulsi3>:
  1014f8:	0005883a 	mov	r2,zero
  1014fc:	20000726 	beq	r4,zero,10151c <__mulsi3+0x24>
  101500:	20c0004c 	andi	r3,r4,1
  101504:	2008d07a 	srli	r4,r4,1
  101508:	18000126 	beq	r3,zero,101510 <__mulsi3+0x18>
  10150c:	1145883a 	add	r2,r2,r5
  101510:	294b883a 	add	r5,r5,r5
  101514:	203ffa1e 	bne	r4,zero,101500 <_gp+0xffef8d38>
  101518:	f800283a 	ret
  10151c:	f800283a 	ret

00101520 <memset>:
  101520:	20c000cc 	andi	r3,r4,3
  101524:	2005883a 	mov	r2,r4
  101528:	18004326 	beq	r3,zero,101638 <memset+0x118>
  10152c:	31ffffc4 	addi	r7,r6,-1
  101530:	30004026 	beq	r6,zero,101634 <memset+0x114>
  101534:	2813883a 	mov	r9,r5
  101538:	200d883a 	mov	r6,r4
  10153c:	2007883a 	mov	r3,r4
  101540:	00000406 	br	101554 <memset+0x34>
  101544:	3a3fffc4 	addi	r8,r7,-1
  101548:	31800044 	addi	r6,r6,1
  10154c:	38003926 	beq	r7,zero,101634 <memset+0x114>
  101550:	400f883a 	mov	r7,r8
  101554:	18c00044 	addi	r3,r3,1
  101558:	32400005 	stb	r9,0(r6)
  10155c:	1a0000cc 	andi	r8,r3,3
  101560:	403ff81e 	bne	r8,zero,101544 <_gp+0xffef8d7c>
  101564:	010000c4 	movi	r4,3
  101568:	21c02d2e 	bgeu	r4,r7,101620 <memset+0x100>
  10156c:	29803fcc 	andi	r6,r5,255
  101570:	3008923a 	slli	r4,r6,8
  101574:	218cb03a 	or	r6,r4,r6
  101578:	3008943a 	slli	r4,r6,16
  10157c:	218cb03a 	or	r6,r4,r6
  101580:	010003c4 	movi	r4,15
  101584:	21c0182e 	bgeu	r4,r7,1015e8 <memset+0xc8>
  101588:	3b3ffc04 	addi	r12,r7,-16
  10158c:	6018d13a 	srli	r12,r12,4
  101590:	1a000104 	addi	r8,r3,4
  101594:	1ac00204 	addi	r11,r3,8
  101598:	6008913a 	slli	r4,r12,4
  10159c:	1a800304 	addi	r10,r3,12
  1015a0:	1813883a 	mov	r9,r3
  1015a4:	21000504 	addi	r4,r4,20
  1015a8:	1909883a 	add	r4,r3,r4
  1015ac:	49800015 	stw	r6,0(r9)
  1015b0:	41800015 	stw	r6,0(r8)
  1015b4:	59800015 	stw	r6,0(r11)
  1015b8:	51800015 	stw	r6,0(r10)
  1015bc:	42000404 	addi	r8,r8,16
  1015c0:	4a400404 	addi	r9,r9,16
  1015c4:	5ac00404 	addi	r11,r11,16
  1015c8:	52800404 	addi	r10,r10,16
  1015cc:	413ff71e 	bne	r8,r4,1015ac <_gp+0xffef8de4>
  1015d0:	63000044 	addi	r12,r12,1
  1015d4:	6018913a 	slli	r12,r12,4
  1015d8:	39c003cc 	andi	r7,r7,15
  1015dc:	010000c4 	movi	r4,3
  1015e0:	1b07883a 	add	r3,r3,r12
  1015e4:	21c00e2e 	bgeu	r4,r7,101620 <memset+0x100>
  1015e8:	1813883a 	mov	r9,r3
  1015ec:	3811883a 	mov	r8,r7
  1015f0:	010000c4 	movi	r4,3
  1015f4:	49800015 	stw	r6,0(r9)
  1015f8:	423fff04 	addi	r8,r8,-4
  1015fc:	4a400104 	addi	r9,r9,4
  101600:	223ffc36 	bltu	r4,r8,1015f4 <_gp+0xffef8e2c>
  101604:	393fff04 	addi	r4,r7,-4
  101608:	2008d0ba 	srli	r4,r4,2
  10160c:	39c000cc 	andi	r7,r7,3
  101610:	21000044 	addi	r4,r4,1
  101614:	2109883a 	add	r4,r4,r4
  101618:	2109883a 	add	r4,r4,r4
  10161c:	1907883a 	add	r3,r3,r4
  101620:	38000426 	beq	r7,zero,101634 <memset+0x114>
  101624:	19cf883a 	add	r7,r3,r7
  101628:	19400005 	stb	r5,0(r3)
  10162c:	18c00044 	addi	r3,r3,1
  101630:	19fffd1e 	bne	r3,r7,101628 <_gp+0xffef8e60>
  101634:	f800283a 	ret
  101638:	2007883a 	mov	r3,r4
  10163c:	300f883a 	mov	r7,r6
  101640:	003fc806 	br	101564 <_gp+0xffef8d9c>

00101644 <alt_load_section>:
  101644:	defffc04 	addi	sp,sp,-16
  101648:	df000315 	stw	fp,12(sp)
  10164c:	df000304 	addi	fp,sp,12
  101650:	e13ffd15 	stw	r4,-12(fp)
  101654:	e17ffe15 	stw	r5,-8(fp)
  101658:	e1bfff15 	stw	r6,-4(fp)
  10165c:	e0fffe17 	ldw	r3,-8(fp)
  101660:	e0bffd17 	ldw	r2,-12(fp)
  101664:	18800c26 	beq	r3,r2,101698 <alt_load_section+0x54>
  101668:	00000806 	br	10168c <alt_load_section+0x48>
  10166c:	e0bffe17 	ldw	r2,-8(fp)
  101670:	10c00104 	addi	r3,r2,4
  101674:	e0fffe15 	stw	r3,-8(fp)
  101678:	e0fffd17 	ldw	r3,-12(fp)
  10167c:	19000104 	addi	r4,r3,4
  101680:	e13ffd15 	stw	r4,-12(fp)
  101684:	18c00017 	ldw	r3,0(r3)
  101688:	10c00015 	stw	r3,0(r2)
  10168c:	e0fffe17 	ldw	r3,-8(fp)
  101690:	e0bfff17 	ldw	r2,-4(fp)
  101694:	18bff51e 	bne	r3,r2,10166c <_gp+0xffef8ea4>
  101698:	e037883a 	mov	sp,fp
  10169c:	df000017 	ldw	fp,0(sp)
  1016a0:	dec00104 	addi	sp,sp,4
  1016a4:	f800283a 	ret

001016a8 <alt_load>:
  1016a8:	defffe04 	addi	sp,sp,-8
  1016ac:	dfc00115 	stw	ra,4(sp)
  1016b0:	df000015 	stw	fp,0(sp)
  1016b4:	d839883a 	mov	fp,sp
  1016b8:	01000434 	movhi	r4,16
  1016bc:	21109504 	addi	r4,r4,16980
  1016c0:	01400834 	movhi	r5,32
  1016c4:	29400e04 	addi	r5,r5,56
  1016c8:	01800834 	movhi	r6,32
  1016cc:	31820304 	addi	r6,r6,2060
  1016d0:	01016440 	call	101644 <alt_load_section>
  1016d4:	01000434 	movhi	r4,16
  1016d8:	21000804 	addi	r4,r4,32
  1016dc:	01400434 	movhi	r5,16
  1016e0:	29400804 	addi	r5,r5,32
  1016e4:	01800434 	movhi	r6,16
  1016e8:	31808b04 	addi	r6,r6,556
  1016ec:	01016440 	call	101644 <alt_load_section>
  1016f0:	01000434 	movhi	r4,16
  1016f4:	21108704 	addi	r4,r4,16924
  1016f8:	01400834 	movhi	r5,32
  1016fc:	29400004 	addi	r5,r5,0
  101700:	01800834 	movhi	r6,32
  101704:	31800e04 	addi	r6,r6,56
  101708:	01016440 	call	101644 <alt_load_section>
  10170c:	01035440 	call	103544 <alt_dcache_flush_all>
  101710:	01037f00 	call	1037f0 <alt_icache_flush_all>
  101714:	e037883a 	mov	sp,fp
  101718:	dfc00117 	ldw	ra,4(sp)
  10171c:	df000017 	ldw	fp,0(sp)
  101720:	dec00204 	addi	sp,sp,8
  101724:	f800283a 	ret

00101728 <alt_main>:
  101728:	defffd04 	addi	sp,sp,-12
  10172c:	dfc00215 	stw	ra,8(sp)
  101730:	df000115 	stw	fp,4(sp)
  101734:	df000104 	addi	fp,sp,4
  101738:	0009883a 	mov	r4,zero
  10173c:	01017ec0 	call	1017ec <alt_irq_init>
  101740:	0001883a 	nop
  101744:	01018200 	call	101820 <alt_sys_init>
  101748:	01036800 	call	103680 <_do_ctors>
  10174c:	01000434 	movhi	r4,16
  101750:	210db704 	addi	r4,r4,14044
  101754:	0103ca80 	call	103ca8 <atexit>
  101758:	d1201e17 	ldw	r4,-32648(gp)
  10175c:	d0e01f17 	ldw	r3,-32644(gp)
  101760:	d0a02017 	ldw	r2,-32640(gp)
  101764:	180b883a 	mov	r5,r3
  101768:	100d883a 	mov	r6,r2
  10176c:	01006140 	call	100614 <main>
  101770:	e0bfff15 	stw	r2,-4(fp)
  101774:	01000044 	movi	r4,1
  101778:	01034480 	call	103448 <close>
  10177c:	e13fff17 	ldw	r4,-4(fp)
  101780:	0103cbc0 	call	103cbc <exit>

00101784 <usleep>:
  101784:	defffd04 	addi	sp,sp,-12
  101788:	dfc00215 	stw	ra,8(sp)
  10178c:	df000115 	stw	fp,4(sp)
  101790:	df000104 	addi	fp,sp,4
  101794:	e13fff15 	stw	r4,-4(fp)
  101798:	e13fff17 	ldw	r4,-4(fp)
  10179c:	01032a00 	call	1032a0 <alt_busy_sleep>
  1017a0:	e037883a 	mov	sp,fp
  1017a4:	dfc00117 	ldw	ra,4(sp)
  1017a8:	df000017 	ldw	fp,0(sp)
  1017ac:	dec00204 	addi	sp,sp,8
  1017b0:	f800283a 	ret

001017b4 <alt_dev_reg>:
  1017b4:	defffd04 	addi	sp,sp,-12
  1017b8:	dfc00215 	stw	ra,8(sp)
  1017bc:	df000115 	stw	fp,4(sp)
  1017c0:	df000104 	addi	fp,sp,4
  1017c4:	e13fff15 	stw	r4,-4(fp)
  1017c8:	e13fff17 	ldw	r4,-4(fp)
  1017cc:	01400834 	movhi	r5,32
  1017d0:	2941fa04 	addi	r5,r5,2024
  1017d4:	01035dc0 	call	1035dc <alt_dev_llist_insert>
  1017d8:	e037883a 	mov	sp,fp
  1017dc:	dfc00117 	ldw	ra,4(sp)
  1017e0:	df000017 	ldw	fp,0(sp)
  1017e4:	dec00204 	addi	sp,sp,8
  1017e8:	f800283a 	ret

001017ec <alt_irq_init>:
  1017ec:	defffd04 	addi	sp,sp,-12
  1017f0:	dfc00215 	stw	ra,8(sp)
  1017f4:	df000115 	stw	fp,4(sp)
  1017f8:	df000104 	addi	fp,sp,4
  1017fc:	e13fff15 	stw	r4,-4(fp)
  101800:	0103b5c0 	call	103b5c <altera_nios2_gen2_irq_init>
  101804:	00800044 	movi	r2,1
  101808:	1001703a 	wrctl	status,r2
  10180c:	e037883a 	mov	sp,fp
  101810:	dfc00117 	ldw	ra,4(sp)
  101814:	df000017 	ldw	fp,0(sp)
  101818:	dec00204 	addi	sp,sp,8
  10181c:	f800283a 	ret

00101820 <alt_sys_init>:
  101820:	defffe04 	addi	sp,sp,-8
  101824:	dfc00115 	stw	ra,4(sp)
  101828:	df000015 	stw	fp,0(sp)
  10182c:	d839883a 	mov	fp,sp
  101830:	0001883a 	nop
  101834:	0001883a 	nop
  101838:	0001883a 	nop
  10183c:	01000834 	movhi	r4,32
  101840:	21001804 	addi	r4,r4,96
  101844:	000b883a 	mov	r5,zero
  101848:	01800044 	movi	r6,1
  10184c:	0101b940 	call	101b94 <altera_avalon_uart_init>
  101850:	01000834 	movhi	r4,32
  101854:	21000e04 	addi	r4,r4,56
  101858:	01017b40 	call	1017b4 <alt_dev_reg>
  10185c:	01000834 	movhi	r4,32
  101860:	21003f04 	addi	r4,r4,252
  101864:	0102c180 	call	102c18 <altera_onchip_flash_init>
  101868:	0001883a 	nop
  10186c:	e037883a 	mov	sp,fp
  101870:	dfc00117 	ldw	ra,4(sp)
  101874:	df000017 	ldw	fp,0(sp)
  101878:	dec00204 	addi	sp,sp,8
  10187c:	f800283a 	ret

00101880 <alt_avalon_spi_command>:
  101880:	defff404 	addi	sp,sp,-48
  101884:	df000b15 	stw	fp,44(sp)
  101888:	df000b04 	addi	fp,sp,44
  10188c:	e13ffc15 	stw	r4,-16(fp)
  101890:	e17ffd15 	stw	r5,-12(fp)
  101894:	e1bffe15 	stw	r6,-8(fp)
  101898:	e1ffff15 	stw	r7,-4(fp)
  10189c:	e0ffff17 	ldw	r3,-4(fp)
  1018a0:	e0bffe17 	ldw	r2,-8(fp)
  1018a4:	1885883a 	add	r2,r3,r2
  1018a8:	e0bff815 	stw	r2,-32(fp)
  1018ac:	e0c00217 	ldw	r3,8(fp)
  1018b0:	e0800117 	ldw	r2,4(fp)
  1018b4:	1885883a 	add	r2,r3,r2
  1018b8:	e0bff915 	stw	r2,-28(fp)
  1018bc:	e0800117 	ldw	r2,4(fp)
  1018c0:	e0bff515 	stw	r2,-44(fp)
  1018c4:	e0bffe17 	ldw	r2,-8(fp)
  1018c8:	e0bff615 	stw	r2,-40(fp)
  1018cc:	00800044 	movi	r2,1
  1018d0:	e0bff715 	stw	r2,-36(fp)
  1018d4:	e0bffc17 	ldw	r2,-16(fp)
  1018d8:	10800504 	addi	r2,r2,20
  1018dc:	1009883a 	mov	r4,r2
  1018e0:	e0bffd17 	ldw	r2,-12(fp)
  1018e4:	00c00044 	movi	r3,1
  1018e8:	1884983a 	sll	r2,r3,r2
  1018ec:	20800035 	stwio	r2,0(r4)
  1018f0:	e0800317 	ldw	r2,12(fp)
  1018f4:	1080008c 	andi	r2,r2,2
  1018f8:	1000051e 	bne	r2,zero,101910 <alt_avalon_spi_command+0x90>
  1018fc:	e0bffc17 	ldw	r2,-16(fp)
  101900:	10800304 	addi	r2,r2,12
  101904:	1007883a 	mov	r3,r2
  101908:	00810004 	movi	r2,1024
  10190c:	18800035 	stwio	r2,0(r3)
  101910:	e0bffc17 	ldw	r2,-16(fp)
  101914:	10800037 	ldwio	r2,0(r2)
  101918:	e0bffc17 	ldw	r2,-16(fp)
  10191c:	10800204 	addi	r2,r2,8
  101920:	10800037 	ldwio	r2,0(r2)
  101924:	e0bffa15 	stw	r2,-24(fp)
  101928:	e0bffa17 	ldw	r2,-24(fp)
  10192c:	1080100c 	andi	r2,r2,64
  101930:	10000226 	beq	r2,zero,10193c <alt_avalon_spi_command+0xbc>
  101934:	e0bff717 	ldw	r2,-36(fp)
  101938:	1000031e 	bne	r2,zero,101948 <alt_avalon_spi_command+0xc8>
  10193c:	e0bffa17 	ldw	r2,-24(fp)
  101940:	1080200c 	andi	r2,r2,128
  101944:	103ff426 	beq	r2,zero,101918 <_gp+0xffef9150>
  101948:	e0bffa17 	ldw	r2,-24(fp)
  10194c:	1080100c 	andi	r2,r2,64
  101950:	10001e26 	beq	r2,zero,1019cc <alt_avalon_spi_command+0x14c>
  101954:	e0bff717 	ldw	r2,-36(fp)
  101958:	00801c0e 	bge	zero,r2,1019cc <alt_avalon_spi_command+0x14c>
  10195c:	e0bff717 	ldw	r2,-36(fp)
  101960:	10bfffc4 	addi	r2,r2,-1
  101964:	e0bff715 	stw	r2,-36(fp)
  101968:	e0ffff17 	ldw	r3,-4(fp)
  10196c:	e0bff817 	ldw	r2,-32(fp)
  101970:	18800a2e 	bgeu	r3,r2,10199c <alt_avalon_spi_command+0x11c>
  101974:	e0bffc17 	ldw	r2,-16(fp)
  101978:	10800104 	addi	r2,r2,4
  10197c:	1009883a 	mov	r4,r2
  101980:	e0bfff17 	ldw	r2,-4(fp)
  101984:	10c00044 	addi	r3,r2,1
  101988:	e0ffff15 	stw	r3,-4(fp)
  10198c:	10800003 	ldbu	r2,0(r2)
  101990:	10803fcc 	andi	r2,r2,255
  101994:	20800035 	stwio	r2,0(r4)
  101998:	00000c06 	br	1019cc <alt_avalon_spi_command+0x14c>
  10199c:	e0bff517 	ldw	r2,-44(fp)
  1019a0:	10000826 	beq	r2,zero,1019c4 <alt_avalon_spi_command+0x144>
  1019a4:	e0bff517 	ldw	r2,-44(fp)
  1019a8:	10bfffc4 	addi	r2,r2,-1
  1019ac:	e0bff515 	stw	r2,-44(fp)
  1019b0:	e0bffc17 	ldw	r2,-16(fp)
  1019b4:	10800104 	addi	r2,r2,4
  1019b8:	0007883a 	mov	r3,zero
  1019bc:	10c00035 	stwio	r3,0(r2)
  1019c0:	00000206 	br	1019cc <alt_avalon_spi_command+0x14c>
  1019c4:	00bf0004 	movi	r2,-1024
  1019c8:	e0bff715 	stw	r2,-36(fp)
  1019cc:	e0bffa17 	ldw	r2,-24(fp)
  1019d0:	1080200c 	andi	r2,r2,128
  1019d4:	10001726 	beq	r2,zero,101a34 <alt_avalon_spi_command+0x1b4>
  1019d8:	e0bffc17 	ldw	r2,-16(fp)
  1019dc:	10800037 	ldwio	r2,0(r2)
  1019e0:	e0bffb15 	stw	r2,-20(fp)
  1019e4:	e0bff617 	ldw	r2,-40(fp)
  1019e8:	10000426 	beq	r2,zero,1019fc <alt_avalon_spi_command+0x17c>
  1019ec:	e0bff617 	ldw	r2,-40(fp)
  1019f0:	10bfffc4 	addi	r2,r2,-1
  1019f4:	e0bff615 	stw	r2,-40(fp)
  1019f8:	00000506 	br	101a10 <alt_avalon_spi_command+0x190>
  1019fc:	e0800217 	ldw	r2,8(fp)
  101a00:	10c00044 	addi	r3,r2,1
  101a04:	e0c00215 	stw	r3,8(fp)
  101a08:	e0fffb17 	ldw	r3,-20(fp)
  101a0c:	10c00005 	stb	r3,0(r2)
  101a10:	e0bff717 	ldw	r2,-36(fp)
  101a14:	10800044 	addi	r2,r2,1
  101a18:	e0bff715 	stw	r2,-36(fp)
  101a1c:	e0bff617 	ldw	r2,-40(fp)
  101a20:	1000041e 	bne	r2,zero,101a34 <alt_avalon_spi_command+0x1b4>
  101a24:	e0c00217 	ldw	r3,8(fp)
  101a28:	e0bff917 	ldw	r2,-28(fp)
  101a2c:	1880011e 	bne	r3,r2,101a34 <alt_avalon_spi_command+0x1b4>
  101a30:	00000106 	br	101a38 <alt_avalon_spi_command+0x1b8>
  101a34:	003fb806 	br	101918 <_gp+0xffef9150>
  101a38:	e0bffc17 	ldw	r2,-16(fp)
  101a3c:	10800204 	addi	r2,r2,8
  101a40:	10800037 	ldwio	r2,0(r2)
  101a44:	e0bffa15 	stw	r2,-24(fp)
  101a48:	e0bffa17 	ldw	r2,-24(fp)
  101a4c:	1080080c 	andi	r2,r2,32
  101a50:	103ff926 	beq	r2,zero,101a38 <_gp+0xffef9270>
  101a54:	e0800317 	ldw	r2,12(fp)
  101a58:	1080004c 	andi	r2,r2,1
  101a5c:	1000041e 	bne	r2,zero,101a70 <alt_avalon_spi_command+0x1f0>
  101a60:	e0bffc17 	ldw	r2,-16(fp)
  101a64:	10800304 	addi	r2,r2,12
  101a68:	0007883a 	mov	r3,zero
  101a6c:	10c00035 	stwio	r3,0(r2)
  101a70:	e0800117 	ldw	r2,4(fp)
  101a74:	e037883a 	mov	sp,fp
  101a78:	df000017 	ldw	fp,0(sp)
  101a7c:	dec00104 	addi	sp,sp,4
  101a80:	f800283a 	ret

00101a84 <altera_avalon_uart_read_fd>:
  101a84:	defffa04 	addi	sp,sp,-24
  101a88:	dfc00515 	stw	ra,20(sp)
  101a8c:	df000415 	stw	fp,16(sp)
  101a90:	df000404 	addi	fp,sp,16
  101a94:	e13ffd15 	stw	r4,-12(fp)
  101a98:	e17ffe15 	stw	r5,-8(fp)
  101a9c:	e1bfff15 	stw	r6,-4(fp)
  101aa0:	e0bffd17 	ldw	r2,-12(fp)
  101aa4:	10800017 	ldw	r2,0(r2)
  101aa8:	e0bffc15 	stw	r2,-16(fp)
  101aac:	e0bffc17 	ldw	r2,-16(fp)
  101ab0:	10c00a04 	addi	r3,r2,40
  101ab4:	e0bffd17 	ldw	r2,-12(fp)
  101ab8:	10800217 	ldw	r2,8(r2)
  101abc:	1809883a 	mov	r4,r3
  101ac0:	e17ffe17 	ldw	r5,-8(fp)
  101ac4:	e1bfff17 	ldw	r6,-4(fp)
  101ac8:	100f883a 	mov	r7,r2
  101acc:	0101f9c0 	call	101f9c <altera_avalon_uart_read>
  101ad0:	e037883a 	mov	sp,fp
  101ad4:	dfc00117 	ldw	ra,4(sp)
  101ad8:	df000017 	ldw	fp,0(sp)
  101adc:	dec00204 	addi	sp,sp,8
  101ae0:	f800283a 	ret

00101ae4 <altera_avalon_uart_write_fd>:
  101ae4:	defffa04 	addi	sp,sp,-24
  101ae8:	dfc00515 	stw	ra,20(sp)
  101aec:	df000415 	stw	fp,16(sp)
  101af0:	df000404 	addi	fp,sp,16
  101af4:	e13ffd15 	stw	r4,-12(fp)
  101af8:	e17ffe15 	stw	r5,-8(fp)
  101afc:	e1bfff15 	stw	r6,-4(fp)
  101b00:	e0bffd17 	ldw	r2,-12(fp)
  101b04:	10800017 	ldw	r2,0(r2)
  101b08:	e0bffc15 	stw	r2,-16(fp)
  101b0c:	e0bffc17 	ldw	r2,-16(fp)
  101b10:	10c00a04 	addi	r3,r2,40
  101b14:	e0bffd17 	ldw	r2,-12(fp)
  101b18:	10800217 	ldw	r2,8(r2)
  101b1c:	1809883a 	mov	r4,r3
  101b20:	e17ffe17 	ldw	r5,-8(fp)
  101b24:	e1bfff17 	ldw	r6,-4(fp)
  101b28:	100f883a 	mov	r7,r2
  101b2c:	01021c80 	call	1021c8 <altera_avalon_uart_write>
  101b30:	e037883a 	mov	sp,fp
  101b34:	dfc00117 	ldw	ra,4(sp)
  101b38:	df000017 	ldw	fp,0(sp)
  101b3c:	dec00204 	addi	sp,sp,8
  101b40:	f800283a 	ret

00101b44 <altera_avalon_uart_close_fd>:
  101b44:	defffc04 	addi	sp,sp,-16
  101b48:	dfc00315 	stw	ra,12(sp)
  101b4c:	df000215 	stw	fp,8(sp)
  101b50:	df000204 	addi	fp,sp,8
  101b54:	e13fff15 	stw	r4,-4(fp)
  101b58:	e0bfff17 	ldw	r2,-4(fp)
  101b5c:	10800017 	ldw	r2,0(r2)
  101b60:	e0bffe15 	stw	r2,-8(fp)
  101b64:	e0bffe17 	ldw	r2,-8(fp)
  101b68:	10c00a04 	addi	r3,r2,40
  101b6c:	e0bfff17 	ldw	r2,-4(fp)
  101b70:	10800217 	ldw	r2,8(r2)
  101b74:	1809883a 	mov	r4,r3
  101b78:	100b883a 	mov	r5,r2
  101b7c:	0101ef80 	call	101ef8 <altera_avalon_uart_close>
  101b80:	e037883a 	mov	sp,fp
  101b84:	dfc00117 	ldw	ra,4(sp)
  101b88:	df000017 	ldw	fp,0(sp)
  101b8c:	dec00204 	addi	sp,sp,8
  101b90:	f800283a 	ret

00101b94 <altera_avalon_uart_init>:
  101b94:	defff804 	addi	sp,sp,-32
  101b98:	dfc00715 	stw	ra,28(sp)
  101b9c:	df000615 	stw	fp,24(sp)
  101ba0:	df000604 	addi	fp,sp,24
  101ba4:	e13ffd15 	stw	r4,-12(fp)
  101ba8:	e17ffe15 	stw	r5,-8(fp)
  101bac:	e1bfff15 	stw	r6,-4(fp)
  101bb0:	e0bffd17 	ldw	r2,-12(fp)
  101bb4:	10800017 	ldw	r2,0(r2)
  101bb8:	e0bffb15 	stw	r2,-20(fp)
  101bbc:	0005883a 	mov	r2,zero
  101bc0:	1000041e 	bne	r2,zero,101bd4 <altera_avalon_uart_init+0x40>
  101bc4:	0005883a 	mov	r2,zero
  101bc8:	1000021e 	bne	r2,zero,101bd4 <altera_avalon_uart_init+0x40>
  101bcc:	0005883a 	mov	r2,zero
  101bd0:	10000226 	beq	r2,zero,101bdc <altera_avalon_uart_init+0x48>
  101bd4:	00800044 	movi	r2,1
  101bd8:	00000106 	br	101be0 <altera_avalon_uart_init+0x4c>
  101bdc:	0005883a 	mov	r2,zero
  101be0:	e0bffc15 	stw	r2,-16(fp)
  101be4:	e0bffc17 	ldw	r2,-16(fp)
  101be8:	10000f1e 	bne	r2,zero,101c28 <altera_avalon_uart_init+0x94>
  101bec:	e0bffd17 	ldw	r2,-12(fp)
  101bf0:	00c32004 	movi	r3,3200
  101bf4:	10c00115 	stw	r3,4(r2)
  101bf8:	e0bffb17 	ldw	r2,-20(fp)
  101bfc:	10800304 	addi	r2,r2,12
  101c00:	e0fffd17 	ldw	r3,-12(fp)
  101c04:	18c00117 	ldw	r3,4(r3)
  101c08:	10c00035 	stwio	r3,0(r2)
  101c0c:	d8000015 	stw	zero,0(sp)
  101c10:	e13ffe17 	ldw	r4,-8(fp)
  101c14:	e17fff17 	ldw	r5,-4(fp)
  101c18:	01800434 	movhi	r6,16
  101c1c:	31870f04 	addi	r6,r6,7228
  101c20:	e1fffd17 	ldw	r7,-12(fp)
  101c24:	010380c0 	call	10380c <alt_ic_isr_register>
  101c28:	e037883a 	mov	sp,fp
  101c2c:	dfc00117 	ldw	ra,4(sp)
  101c30:	df000017 	ldw	fp,0(sp)
  101c34:	dec00204 	addi	sp,sp,8
  101c38:	f800283a 	ret

00101c3c <altera_avalon_uart_irq>:
  101c3c:	defffa04 	addi	sp,sp,-24
  101c40:	dfc00515 	stw	ra,20(sp)
  101c44:	df000415 	stw	fp,16(sp)
  101c48:	df000404 	addi	fp,sp,16
  101c4c:	e13fff15 	stw	r4,-4(fp)
  101c50:	e0bfff17 	ldw	r2,-4(fp)
  101c54:	e0bffc15 	stw	r2,-16(fp)
  101c58:	e0bffc17 	ldw	r2,-16(fp)
  101c5c:	10800017 	ldw	r2,0(r2)
  101c60:	e0bffd15 	stw	r2,-12(fp)
  101c64:	e0bffd17 	ldw	r2,-12(fp)
  101c68:	10800204 	addi	r2,r2,8
  101c6c:	10800037 	ldwio	r2,0(r2)
  101c70:	e0bffe15 	stw	r2,-8(fp)
  101c74:	e0bffd17 	ldw	r2,-12(fp)
  101c78:	10800204 	addi	r2,r2,8
  101c7c:	0007883a 	mov	r3,zero
  101c80:	10c00035 	stwio	r3,0(r2)
  101c84:	e0bffd17 	ldw	r2,-12(fp)
  101c88:	10800204 	addi	r2,r2,8
  101c8c:	10800037 	ldwio	r2,0(r2)
  101c90:	e0bffe17 	ldw	r2,-8(fp)
  101c94:	1080200c 	andi	r2,r2,128
  101c98:	10000326 	beq	r2,zero,101ca8 <altera_avalon_uart_irq+0x6c>
  101c9c:	e13ffc17 	ldw	r4,-16(fp)
  101ca0:	e17ffe17 	ldw	r5,-8(fp)
  101ca4:	0101cd40 	call	101cd4 <altera_avalon_uart_rxirq>
  101ca8:	e0bffe17 	ldw	r2,-8(fp)
  101cac:	1081100c 	andi	r2,r2,1088
  101cb0:	10000326 	beq	r2,zero,101cc0 <altera_avalon_uart_irq+0x84>
  101cb4:	e13ffc17 	ldw	r4,-16(fp)
  101cb8:	e17ffe17 	ldw	r5,-8(fp)
  101cbc:	0101db40 	call	101db4 <altera_avalon_uart_txirq>
  101cc0:	e037883a 	mov	sp,fp
  101cc4:	dfc00117 	ldw	ra,4(sp)
  101cc8:	df000017 	ldw	fp,0(sp)
  101ccc:	dec00204 	addi	sp,sp,8
  101cd0:	f800283a 	ret

00101cd4 <altera_avalon_uart_rxirq>:
  101cd4:	defffc04 	addi	sp,sp,-16
  101cd8:	df000315 	stw	fp,12(sp)
  101cdc:	df000304 	addi	fp,sp,12
  101ce0:	e13ffe15 	stw	r4,-8(fp)
  101ce4:	e17fff15 	stw	r5,-4(fp)
  101ce8:	e0bfff17 	ldw	r2,-4(fp)
  101cec:	108000cc 	andi	r2,r2,3
  101cf0:	10000126 	beq	r2,zero,101cf8 <altera_avalon_uart_rxirq+0x24>
  101cf4:	00002b06 	br	101da4 <altera_avalon_uart_rxirq+0xd0>
  101cf8:	e0bffe17 	ldw	r2,-8(fp)
  101cfc:	10800317 	ldw	r2,12(r2)
  101d00:	e0bffe17 	ldw	r2,-8(fp)
  101d04:	10800217 	ldw	r2,8(r2)
  101d08:	e0bffe17 	ldw	r2,-8(fp)
  101d0c:	10800317 	ldw	r2,12(r2)
  101d10:	10800044 	addi	r2,r2,1
  101d14:	10800fcc 	andi	r2,r2,63
  101d18:	e0bffd15 	stw	r2,-12(fp)
  101d1c:	e0bffe17 	ldw	r2,-8(fp)
  101d20:	10800317 	ldw	r2,12(r2)
  101d24:	e0fffe17 	ldw	r3,-8(fp)
  101d28:	18c00017 	ldw	r3,0(r3)
  101d2c:	18c00037 	ldwio	r3,0(r3)
  101d30:	1809883a 	mov	r4,r3
  101d34:	e0fffe17 	ldw	r3,-8(fp)
  101d38:	1885883a 	add	r2,r3,r2
  101d3c:	10800704 	addi	r2,r2,28
  101d40:	11000005 	stb	r4,0(r2)
  101d44:	e0bffe17 	ldw	r2,-8(fp)
  101d48:	e0fffd17 	ldw	r3,-12(fp)
  101d4c:	10c00315 	stw	r3,12(r2)
  101d50:	e0bffe17 	ldw	r2,-8(fp)
  101d54:	10800317 	ldw	r2,12(r2)
  101d58:	10800044 	addi	r2,r2,1
  101d5c:	10800fcc 	andi	r2,r2,63
  101d60:	e0bffd15 	stw	r2,-12(fp)
  101d64:	e0bffe17 	ldw	r2,-8(fp)
  101d68:	10c00217 	ldw	r3,8(r2)
  101d6c:	e0bffd17 	ldw	r2,-12(fp)
  101d70:	18800c1e 	bne	r3,r2,101da4 <altera_avalon_uart_rxirq+0xd0>
  101d74:	e0bffe17 	ldw	r2,-8(fp)
  101d78:	10c00117 	ldw	r3,4(r2)
  101d7c:	00bfdfc4 	movi	r2,-129
  101d80:	1886703a 	and	r3,r3,r2
  101d84:	e0bffe17 	ldw	r2,-8(fp)
  101d88:	10c00115 	stw	r3,4(r2)
  101d8c:	e0bffe17 	ldw	r2,-8(fp)
  101d90:	10800017 	ldw	r2,0(r2)
  101d94:	10800304 	addi	r2,r2,12
  101d98:	e0fffe17 	ldw	r3,-8(fp)
  101d9c:	18c00117 	ldw	r3,4(r3)
  101da0:	10c00035 	stwio	r3,0(r2)
  101da4:	e037883a 	mov	sp,fp
  101da8:	df000017 	ldw	fp,0(sp)
  101dac:	dec00104 	addi	sp,sp,4
  101db0:	f800283a 	ret

00101db4 <altera_avalon_uart_txirq>:
  101db4:	defffb04 	addi	sp,sp,-20
  101db8:	df000415 	stw	fp,16(sp)
  101dbc:	df000404 	addi	fp,sp,16
  101dc0:	e13ffc15 	stw	r4,-16(fp)
  101dc4:	e17ffd15 	stw	r5,-12(fp)
  101dc8:	e0bffc17 	ldw	r2,-16(fp)
  101dcc:	10c00417 	ldw	r3,16(r2)
  101dd0:	e0bffc17 	ldw	r2,-16(fp)
  101dd4:	10800517 	ldw	r2,20(r2)
  101dd8:	18803226 	beq	r3,r2,101ea4 <altera_avalon_uart_txirq+0xf0>
  101ddc:	e0bffc17 	ldw	r2,-16(fp)
  101de0:	10800617 	ldw	r2,24(r2)
  101de4:	1080008c 	andi	r2,r2,2
  101de8:	10000326 	beq	r2,zero,101df8 <altera_avalon_uart_txirq+0x44>
  101dec:	e0bffd17 	ldw	r2,-12(fp)
  101df0:	1082000c 	andi	r2,r2,2048
  101df4:	10001d26 	beq	r2,zero,101e6c <altera_avalon_uart_txirq+0xb8>
  101df8:	e0bffc17 	ldw	r2,-16(fp)
  101dfc:	10800417 	ldw	r2,16(r2)
  101e00:	e0bffc17 	ldw	r2,-16(fp)
  101e04:	10800517 	ldw	r2,20(r2)
  101e08:	e0bffc17 	ldw	r2,-16(fp)
  101e0c:	10800017 	ldw	r2,0(r2)
  101e10:	10800104 	addi	r2,r2,4
  101e14:	e0fffc17 	ldw	r3,-16(fp)
  101e18:	18c00417 	ldw	r3,16(r3)
  101e1c:	e13ffc17 	ldw	r4,-16(fp)
  101e20:	20c7883a 	add	r3,r4,r3
  101e24:	18c01704 	addi	r3,r3,92
  101e28:	18c00003 	ldbu	r3,0(r3)
  101e2c:	18c03fcc 	andi	r3,r3,255
  101e30:	10c00035 	stwio	r3,0(r2)
  101e34:	e0bffc17 	ldw	r2,-16(fp)
  101e38:	10800417 	ldw	r2,16(r2)
  101e3c:	10800044 	addi	r2,r2,1
  101e40:	e0fffc17 	ldw	r3,-16(fp)
  101e44:	18800415 	stw	r2,16(r3)
  101e48:	10c00fcc 	andi	r3,r2,63
  101e4c:	e0bffc17 	ldw	r2,-16(fp)
  101e50:	10c00415 	stw	r3,16(r2)
  101e54:	e0bffc17 	ldw	r2,-16(fp)
  101e58:	10800117 	ldw	r2,4(r2)
  101e5c:	10c01014 	ori	r3,r2,64
  101e60:	e0bffc17 	ldw	r2,-16(fp)
  101e64:	10c00115 	stw	r3,4(r2)
  101e68:	00000e06 	br	101ea4 <altera_avalon_uart_txirq+0xf0>
  101e6c:	e0bffc17 	ldw	r2,-16(fp)
  101e70:	10800017 	ldw	r2,0(r2)
  101e74:	10800204 	addi	r2,r2,8
  101e78:	10800037 	ldwio	r2,0(r2)
  101e7c:	e0bffd15 	stw	r2,-12(fp)
  101e80:	e0bffd17 	ldw	r2,-12(fp)
  101e84:	1082000c 	andi	r2,r2,2048
  101e88:	1000061e 	bne	r2,zero,101ea4 <altera_avalon_uart_txirq+0xf0>
  101e8c:	e0bffc17 	ldw	r2,-16(fp)
  101e90:	10c00117 	ldw	r3,4(r2)
  101e94:	00bfefc4 	movi	r2,-65
  101e98:	1886703a 	and	r3,r3,r2
  101e9c:	e0bffc17 	ldw	r2,-16(fp)
  101ea0:	10c00115 	stw	r3,4(r2)
  101ea4:	e0bffc17 	ldw	r2,-16(fp)
  101ea8:	10c00417 	ldw	r3,16(r2)
  101eac:	e0bffc17 	ldw	r2,-16(fp)
  101eb0:	10800517 	ldw	r2,20(r2)
  101eb4:	1880061e 	bne	r3,r2,101ed0 <altera_avalon_uart_txirq+0x11c>
  101eb8:	e0bffc17 	ldw	r2,-16(fp)
  101ebc:	10c00117 	ldw	r3,4(r2)
  101ec0:	00beefc4 	movi	r2,-1089
  101ec4:	1886703a 	and	r3,r3,r2
  101ec8:	e0bffc17 	ldw	r2,-16(fp)
  101ecc:	10c00115 	stw	r3,4(r2)
  101ed0:	e0bffc17 	ldw	r2,-16(fp)
  101ed4:	10800017 	ldw	r2,0(r2)
  101ed8:	10800304 	addi	r2,r2,12
  101edc:	e0fffc17 	ldw	r3,-16(fp)
  101ee0:	18c00117 	ldw	r3,4(r3)
  101ee4:	10c00035 	stwio	r3,0(r2)
  101ee8:	e037883a 	mov	sp,fp
  101eec:	df000017 	ldw	fp,0(sp)
  101ef0:	dec00104 	addi	sp,sp,4
  101ef4:	f800283a 	ret

00101ef8 <altera_avalon_uart_close>:
  101ef8:	defffd04 	addi	sp,sp,-12
  101efc:	df000215 	stw	fp,8(sp)
  101f00:	df000204 	addi	fp,sp,8
  101f04:	e13ffe15 	stw	r4,-8(fp)
  101f08:	e17fff15 	stw	r5,-4(fp)
  101f0c:	00000506 	br	101f24 <altera_avalon_uart_close+0x2c>
  101f10:	e0bfff17 	ldw	r2,-4(fp)
  101f14:	1090000c 	andi	r2,r2,16384
  101f18:	10000226 	beq	r2,zero,101f24 <altera_avalon_uart_close+0x2c>
  101f1c:	00bffd44 	movi	r2,-11
  101f20:	00000606 	br	101f3c <altera_avalon_uart_close+0x44>
  101f24:	e0bffe17 	ldw	r2,-8(fp)
  101f28:	10c00417 	ldw	r3,16(r2)
  101f2c:	e0bffe17 	ldw	r2,-8(fp)
  101f30:	10800517 	ldw	r2,20(r2)
  101f34:	18bff61e 	bne	r3,r2,101f10 <_gp+0xffef9748>
  101f38:	0005883a 	mov	r2,zero
  101f3c:	e037883a 	mov	sp,fp
  101f40:	df000017 	ldw	fp,0(sp)
  101f44:	dec00104 	addi	sp,sp,4
  101f48:	f800283a 	ret

00101f4c <alt_get_errno>:
  101f4c:	defffe04 	addi	sp,sp,-8
  101f50:	dfc00115 	stw	ra,4(sp)
  101f54:	df000015 	stw	fp,0(sp)
  101f58:	d839883a 	mov	fp,sp
  101f5c:	00800834 	movhi	r2,32
  101f60:	1081fd04 	addi	r2,r2,2036
  101f64:	10800017 	ldw	r2,0(r2)
  101f68:	10000526 	beq	r2,zero,101f80 <alt_get_errno+0x34>
  101f6c:	00800834 	movhi	r2,32
  101f70:	1081fd04 	addi	r2,r2,2036
  101f74:	10800017 	ldw	r2,0(r2)
  101f78:	103ee83a 	callr	r2
  101f7c:	00000206 	br	101f88 <alt_get_errno+0x3c>
  101f80:	00800834 	movhi	r2,32
  101f84:	10821504 	addi	r2,r2,2132
  101f88:	e037883a 	mov	sp,fp
  101f8c:	dfc00117 	ldw	ra,4(sp)
  101f90:	df000017 	ldw	fp,0(sp)
  101f94:	dec00204 	addi	sp,sp,8
  101f98:	f800283a 	ret

00101f9c <altera_avalon_uart_read>:
  101f9c:	defff204 	addi	sp,sp,-56
  101fa0:	dfc00d15 	stw	ra,52(sp)
  101fa4:	df000c15 	stw	fp,48(sp)
  101fa8:	df000c04 	addi	fp,sp,48
  101fac:	e13ffc15 	stw	r4,-16(fp)
  101fb0:	e17ffd15 	stw	r5,-12(fp)
  101fb4:	e1bffe15 	stw	r6,-8(fp)
  101fb8:	e1ffff15 	stw	r7,-4(fp)
  101fbc:	e03ff405 	stb	zero,-48(fp)
  101fc0:	e03ff515 	stw	zero,-44(fp)
  101fc4:	e0bfff17 	ldw	r2,-4(fp)
  101fc8:	1090000c 	andi	r2,r2,16384
  101fcc:	1005003a 	cmpeq	r2,r2,zero
  101fd0:	10803fcc 	andi	r2,r2,255
  101fd4:	e0bff615 	stw	r2,-40(fp)
  101fd8:	00001306 	br	102028 <altera_avalon_uart_read+0x8c>
  101fdc:	e0bff517 	ldw	r2,-44(fp)
  101fe0:	10800044 	addi	r2,r2,1
  101fe4:	e0bff515 	stw	r2,-44(fp)
  101fe8:	e0bffd17 	ldw	r2,-12(fp)
  101fec:	10c00044 	addi	r3,r2,1
  101ff0:	e0fffd15 	stw	r3,-12(fp)
  101ff4:	e0fffc17 	ldw	r3,-16(fp)
  101ff8:	18c00217 	ldw	r3,8(r3)
  101ffc:	e13ffc17 	ldw	r4,-16(fp)
  102000:	20c7883a 	add	r3,r4,r3
  102004:	18c00704 	addi	r3,r3,28
  102008:	18c00003 	ldbu	r3,0(r3)
  10200c:	10c00005 	stb	r3,0(r2)
  102010:	e0bffc17 	ldw	r2,-16(fp)
  102014:	10800217 	ldw	r2,8(r2)
  102018:	10800044 	addi	r2,r2,1
  10201c:	10c00fcc 	andi	r3,r2,63
  102020:	e0bffc17 	ldw	r2,-16(fp)
  102024:	10c00215 	stw	r3,8(r2)
  102028:	e0fff517 	ldw	r3,-44(fp)
  10202c:	e0bffe17 	ldw	r2,-8(fp)
  102030:	1880050e 	bge	r3,r2,102048 <altera_avalon_uart_read+0xac>
  102034:	e0bffc17 	ldw	r2,-16(fp)
  102038:	10c00217 	ldw	r3,8(r2)
  10203c:	e0bffc17 	ldw	r2,-16(fp)
  102040:	10800317 	ldw	r2,12(r2)
  102044:	18bfe51e 	bne	r3,r2,101fdc <_gp+0xffef9814>
  102048:	e0bff517 	ldw	r2,-44(fp)
  10204c:	1000251e 	bne	r2,zero,1020e4 <altera_avalon_uart_read+0x148>
  102050:	e0bffc17 	ldw	r2,-16(fp)
  102054:	10c00217 	ldw	r3,8(r2)
  102058:	e0bffc17 	ldw	r2,-16(fp)
  10205c:	10800317 	ldw	r2,12(r2)
  102060:	1880201e 	bne	r3,r2,1020e4 <altera_avalon_uart_read+0x148>
  102064:	e0bff617 	ldw	r2,-40(fp)
  102068:	1000071e 	bne	r2,zero,102088 <altera_avalon_uart_read+0xec>
  10206c:	0101f4c0 	call	101f4c <alt_get_errno>
  102070:	1007883a 	mov	r3,r2
  102074:	008002c4 	movi	r2,11
  102078:	18800015 	stw	r2,0(r3)
  10207c:	00800044 	movi	r2,1
  102080:	e0bff405 	stb	r2,-48(fp)
  102084:	00001b06 	br	1020f4 <altera_avalon_uart_read+0x158>
  102088:	0005303a 	rdctl	r2,status
  10208c:	e0bff815 	stw	r2,-32(fp)
  102090:	e0fff817 	ldw	r3,-32(fp)
  102094:	00bfff84 	movi	r2,-2
  102098:	1884703a 	and	r2,r3,r2
  10209c:	1001703a 	wrctl	status,r2
  1020a0:	e0bff817 	ldw	r2,-32(fp)
  1020a4:	e0bff715 	stw	r2,-36(fp)
  1020a8:	e0bffc17 	ldw	r2,-16(fp)
  1020ac:	10800117 	ldw	r2,4(r2)
  1020b0:	10c02014 	ori	r3,r2,128
  1020b4:	e0bffc17 	ldw	r2,-16(fp)
  1020b8:	10c00115 	stw	r3,4(r2)
  1020bc:	e0bffc17 	ldw	r2,-16(fp)
  1020c0:	10800017 	ldw	r2,0(r2)
  1020c4:	10800304 	addi	r2,r2,12
  1020c8:	e0fffc17 	ldw	r3,-16(fp)
  1020cc:	18c00117 	ldw	r3,4(r3)
  1020d0:	10c00035 	stwio	r3,0(r2)
  1020d4:	e0bff717 	ldw	r2,-36(fp)
  1020d8:	e0bff915 	stw	r2,-28(fp)
  1020dc:	e0bff917 	ldw	r2,-28(fp)
  1020e0:	1001703a 	wrctl	status,r2
  1020e4:	e0bff517 	ldw	r2,-44(fp)
  1020e8:	1000021e 	bne	r2,zero,1020f4 <altera_avalon_uart_read+0x158>
  1020ec:	e0bffe17 	ldw	r2,-8(fp)
  1020f0:	103fb91e 	bne	r2,zero,101fd8 <_gp+0xffef9810>
  1020f4:	0005303a 	rdctl	r2,status
  1020f8:	e0bffa15 	stw	r2,-24(fp)
  1020fc:	e0fffa17 	ldw	r3,-24(fp)
  102100:	00bfff84 	movi	r2,-2
  102104:	1884703a 	and	r2,r3,r2
  102108:	1001703a 	wrctl	status,r2
  10210c:	e0bffa17 	ldw	r2,-24(fp)
  102110:	e0bff715 	stw	r2,-36(fp)
  102114:	e0bffc17 	ldw	r2,-16(fp)
  102118:	10800117 	ldw	r2,4(r2)
  10211c:	10c02014 	ori	r3,r2,128
  102120:	e0bffc17 	ldw	r2,-16(fp)
  102124:	10c00115 	stw	r3,4(r2)
  102128:	e0bffc17 	ldw	r2,-16(fp)
  10212c:	10800017 	ldw	r2,0(r2)
  102130:	10800304 	addi	r2,r2,12
  102134:	e0fffc17 	ldw	r3,-16(fp)
  102138:	18c00117 	ldw	r3,4(r3)
  10213c:	10c00035 	stwio	r3,0(r2)
  102140:	e0bff717 	ldw	r2,-36(fp)
  102144:	e0bffb15 	stw	r2,-20(fp)
  102148:	e0bffb17 	ldw	r2,-20(fp)
  10214c:	1001703a 	wrctl	status,r2
  102150:	e0bff403 	ldbu	r2,-48(fp)
  102154:	10000226 	beq	r2,zero,102160 <altera_avalon_uart_read+0x1c4>
  102158:	00bffd44 	movi	r2,-11
  10215c:	00000106 	br	102164 <altera_avalon_uart_read+0x1c8>
  102160:	e0bff517 	ldw	r2,-44(fp)
  102164:	e037883a 	mov	sp,fp
  102168:	dfc00117 	ldw	ra,4(sp)
  10216c:	df000017 	ldw	fp,0(sp)
  102170:	dec00204 	addi	sp,sp,8
  102174:	f800283a 	ret

00102178 <alt_get_errno>:
  102178:	defffe04 	addi	sp,sp,-8
  10217c:	dfc00115 	stw	ra,4(sp)
  102180:	df000015 	stw	fp,0(sp)
  102184:	d839883a 	mov	fp,sp
  102188:	00800834 	movhi	r2,32
  10218c:	1081fd04 	addi	r2,r2,2036
  102190:	10800017 	ldw	r2,0(r2)
  102194:	10000526 	beq	r2,zero,1021ac <alt_get_errno+0x34>
  102198:	00800834 	movhi	r2,32
  10219c:	1081fd04 	addi	r2,r2,2036
  1021a0:	10800017 	ldw	r2,0(r2)
  1021a4:	103ee83a 	callr	r2
  1021a8:	00000206 	br	1021b4 <alt_get_errno+0x3c>
  1021ac:	00800834 	movhi	r2,32
  1021b0:	10821504 	addi	r2,r2,2132
  1021b4:	e037883a 	mov	sp,fp
  1021b8:	dfc00117 	ldw	ra,4(sp)
  1021bc:	df000017 	ldw	fp,0(sp)
  1021c0:	dec00204 	addi	sp,sp,8
  1021c4:	f800283a 	ret

001021c8 <altera_avalon_uart_write>:
  1021c8:	defff204 	addi	sp,sp,-56
  1021cc:	dfc00d15 	stw	ra,52(sp)
  1021d0:	df000c15 	stw	fp,48(sp)
  1021d4:	df000c04 	addi	fp,sp,48
  1021d8:	e13ffc15 	stw	r4,-16(fp)
  1021dc:	e17ffd15 	stw	r5,-12(fp)
  1021e0:	e1bffe15 	stw	r6,-8(fp)
  1021e4:	e1ffff15 	stw	r7,-4(fp)
  1021e8:	e0bffe17 	ldw	r2,-8(fp)
  1021ec:	e0bff415 	stw	r2,-48(fp)
  1021f0:	e0bfff17 	ldw	r2,-4(fp)
  1021f4:	1090000c 	andi	r2,r2,16384
  1021f8:	e0bff515 	stw	r2,-44(fp)
  1021fc:	00003c06 	br	1022f0 <altera_avalon_uart_write+0x128>
  102200:	e0bffc17 	ldw	r2,-16(fp)
  102204:	10800517 	ldw	r2,20(r2)
  102208:	10800044 	addi	r2,r2,1
  10220c:	10800fcc 	andi	r2,r2,63
  102210:	e0bff615 	stw	r2,-40(fp)
  102214:	e0bffc17 	ldw	r2,-16(fp)
  102218:	10c00417 	ldw	r3,16(r2)
  10221c:	e0bff617 	ldw	r2,-40(fp)
  102220:	1880221e 	bne	r3,r2,1022ac <altera_avalon_uart_write+0xe4>
  102224:	e0bff517 	ldw	r2,-44(fp)
  102228:	10000526 	beq	r2,zero,102240 <altera_avalon_uart_write+0x78>
  10222c:	01021780 	call	102178 <alt_get_errno>
  102230:	1007883a 	mov	r3,r2
  102234:	008002c4 	movi	r2,11
  102238:	18800015 	stw	r2,0(r3)
  10223c:	00002e06 	br	1022f8 <altera_avalon_uart_write+0x130>
  102240:	0005303a 	rdctl	r2,status
  102244:	e0bff815 	stw	r2,-32(fp)
  102248:	e0fff817 	ldw	r3,-32(fp)
  10224c:	00bfff84 	movi	r2,-2
  102250:	1884703a 	and	r2,r3,r2
  102254:	1001703a 	wrctl	status,r2
  102258:	e0bff817 	ldw	r2,-32(fp)
  10225c:	e0bff715 	stw	r2,-36(fp)
  102260:	e0bffc17 	ldw	r2,-16(fp)
  102264:	10800117 	ldw	r2,4(r2)
  102268:	10c11014 	ori	r3,r2,1088
  10226c:	e0bffc17 	ldw	r2,-16(fp)
  102270:	10c00115 	stw	r3,4(r2)
  102274:	e0bffc17 	ldw	r2,-16(fp)
  102278:	10800017 	ldw	r2,0(r2)
  10227c:	10800304 	addi	r2,r2,12
  102280:	e0fffc17 	ldw	r3,-16(fp)
  102284:	18c00117 	ldw	r3,4(r3)
  102288:	10c00035 	stwio	r3,0(r2)
  10228c:	e0bff717 	ldw	r2,-36(fp)
  102290:	e0bff915 	stw	r2,-28(fp)
  102294:	e0bff917 	ldw	r2,-28(fp)
  102298:	1001703a 	wrctl	status,r2
  10229c:	e0bffc17 	ldw	r2,-16(fp)
  1022a0:	10c00417 	ldw	r3,16(r2)
  1022a4:	e0bff617 	ldw	r2,-40(fp)
  1022a8:	18bffc26 	beq	r3,r2,10229c <_gp+0xffef9ad4>
  1022ac:	e0bff417 	ldw	r2,-48(fp)
  1022b0:	10bfffc4 	addi	r2,r2,-1
  1022b4:	e0bff415 	stw	r2,-48(fp)
  1022b8:	e0bffc17 	ldw	r2,-16(fp)
  1022bc:	10c00517 	ldw	r3,20(r2)
  1022c0:	e0bffd17 	ldw	r2,-12(fp)
  1022c4:	11000044 	addi	r4,r2,1
  1022c8:	e13ffd15 	stw	r4,-12(fp)
  1022cc:	10800003 	ldbu	r2,0(r2)
  1022d0:	1009883a 	mov	r4,r2
  1022d4:	e0bffc17 	ldw	r2,-16(fp)
  1022d8:	10c5883a 	add	r2,r2,r3
  1022dc:	10801704 	addi	r2,r2,92
  1022e0:	11000005 	stb	r4,0(r2)
  1022e4:	e0bffc17 	ldw	r2,-16(fp)
  1022e8:	e0fff617 	ldw	r3,-40(fp)
  1022ec:	10c00515 	stw	r3,20(r2)
  1022f0:	e0bff417 	ldw	r2,-48(fp)
  1022f4:	103fc21e 	bne	r2,zero,102200 <_gp+0xffef9a38>
  1022f8:	0005303a 	rdctl	r2,status
  1022fc:	e0bffa15 	stw	r2,-24(fp)
  102300:	e0fffa17 	ldw	r3,-24(fp)
  102304:	00bfff84 	movi	r2,-2
  102308:	1884703a 	and	r2,r3,r2
  10230c:	1001703a 	wrctl	status,r2
  102310:	e0bffa17 	ldw	r2,-24(fp)
  102314:	e0bff715 	stw	r2,-36(fp)
  102318:	e0bffc17 	ldw	r2,-16(fp)
  10231c:	10800117 	ldw	r2,4(r2)
  102320:	10c11014 	ori	r3,r2,1088
  102324:	e0bffc17 	ldw	r2,-16(fp)
  102328:	10c00115 	stw	r3,4(r2)
  10232c:	e0bffc17 	ldw	r2,-16(fp)
  102330:	10800017 	ldw	r2,0(r2)
  102334:	10800304 	addi	r2,r2,12
  102338:	e0fffc17 	ldw	r3,-16(fp)
  10233c:	18c00117 	ldw	r3,4(r3)
  102340:	10c00035 	stwio	r3,0(r2)
  102344:	e0bff717 	ldw	r2,-36(fp)
  102348:	e0bffb15 	stw	r2,-20(fp)
  10234c:	e0bffb17 	ldw	r2,-20(fp)
  102350:	1001703a 	wrctl	status,r2
  102354:	e0fffe17 	ldw	r3,-8(fp)
  102358:	e0bff417 	ldw	r2,-48(fp)
  10235c:	1885c83a 	sub	r2,r3,r2
  102360:	e037883a 	mov	sp,fp
  102364:	dfc00117 	ldw	ra,4(sp)
  102368:	df000017 	ldw	fp,0(sp)
  10236c:	dec00204 	addi	sp,sp,8
  102370:	f800283a 	ret

00102374 <alt_flash_device_register>:
  102374:	defffd04 	addi	sp,sp,-12
  102378:	dfc00215 	stw	ra,8(sp)
  10237c:	df000115 	stw	fp,4(sp)
  102380:	df000104 	addi	fp,sp,4
  102384:	e13fff15 	stw	r4,-4(fp)
  102388:	e13fff17 	ldw	r4,-4(fp)
  10238c:	01400834 	movhi	r5,32
  102390:	2941fe04 	addi	r5,r5,2040
  102394:	01035dc0 	call	1035dc <alt_dev_llist_insert>
  102398:	e037883a 	mov	sp,fp
  10239c:	dfc00117 	ldw	ra,4(sp)
  1023a0:	df000017 	ldw	fp,0(sp)
  1023a4:	dec00204 	addi	sp,sp,8
  1023a8:	f800283a 	ret

001023ac <alt_onchip_flash_read>:
  1023ac:	defff704 	addi	sp,sp,-36
  1023b0:	dfc00815 	stw	ra,32(sp)
  1023b4:	df000715 	stw	fp,28(sp)
  1023b8:	df000704 	addi	fp,sp,28
  1023bc:	e13ffc15 	stw	r4,-16(fp)
  1023c0:	e17ffd15 	stw	r5,-12(fp)
  1023c4:	e1bffe15 	stw	r6,-8(fp)
  1023c8:	e1ffff15 	stw	r7,-4(fp)
  1023cc:	e03ff915 	stw	zero,-28(fp)
  1023d0:	e0bffc17 	ldw	r2,-16(fp)
  1023d4:	e0bffa15 	stw	r2,-24(fp)
  1023d8:	e0bffa17 	ldw	r2,-24(fp)
  1023dc:	10800b17 	ldw	r2,44(r2)
  1023e0:	e0fffd17 	ldw	r3,-12(fp)
  1023e4:	1880060e 	bge	r3,r2,102400 <alt_onchip_flash_read+0x54>
  1023e8:	e0fffd17 	ldw	r3,-12(fp)
  1023ec:	e0bfff17 	ldw	r2,-4(fp)
  1023f0:	1885883a 	add	r2,r3,r2
  1023f4:	e0fffa17 	ldw	r3,-24(fp)
  1023f8:	18c00b17 	ldw	r3,44(r3)
  1023fc:	1880020e 	bge	r3,r2,102408 <alt_onchip_flash_read+0x5c>
  102400:	00bffc84 	movi	r2,-14
  102404:	00001706 	br	102464 <alt_onchip_flash_read+0xb8>
  102408:	e0bffa17 	ldw	r2,-24(fp)
  10240c:	10c00a17 	ldw	r3,40(r2)
  102410:	e0bffd17 	ldw	r2,-12(fp)
  102414:	1887883a 	add	r3,r3,r2
  102418:	e0bfff17 	ldw	r2,-4(fp)
  10241c:	e13ffe17 	ldw	r4,-8(fp)
  102420:	180b883a 	mov	r5,r3
  102424:	100d883a 	mov	r6,r2
  102428:	0103d700 	call	103d70 <memcpy>
  10242c:	e0bffa17 	ldw	r2,-24(fp)
  102430:	10802f17 	ldw	r2,188(r2)
  102434:	10000a26 	beq	r2,zero,102460 <alt_onchip_flash_read+0xb4>
  102438:	e0bffa17 	ldw	r2,-24(fp)
  10243c:	10802f17 	ldw	r2,188(r2)
  102440:	10800037 	ldwio	r2,0(r2)
  102444:	1080010c 	andi	r2,r2,4
  102448:	e0bffb15 	stw	r2,-20(fp)
  10244c:	e0bffb17 	ldw	r2,-20(fp)
  102450:	10800120 	cmpeqi	r2,r2,4
  102454:	1000021e 	bne	r2,zero,102460 <alt_onchip_flash_read+0xb4>
  102458:	00bffec4 	movi	r2,-5
  10245c:	e0bff915 	stw	r2,-28(fp)
  102460:	e0bff917 	ldw	r2,-28(fp)
  102464:	e037883a 	mov	sp,fp
  102468:	dfc00117 	ldw	ra,4(sp)
  10246c:	df000017 	ldw	fp,0(sp)
  102470:	dec00204 	addi	sp,sp,8
  102474:	f800283a 	ret

00102478 <alt_onchip_flash_get_info>:
  102478:	defffa04 	addi	sp,sp,-24
  10247c:	df000515 	stw	fp,20(sp)
  102480:	df000504 	addi	fp,sp,20
  102484:	e13ffd15 	stw	r4,-12(fp)
  102488:	e17ffe15 	stw	r5,-8(fp)
  10248c:	e1bfff15 	stw	r6,-4(fp)
  102490:	e03ffb15 	stw	zero,-20(fp)
  102494:	e0bffd17 	ldw	r2,-12(fp)
  102498:	e0bffc15 	stw	r2,-16(fp)
  10249c:	e0bfff17 	ldw	r2,-4(fp)
  1024a0:	10000426 	beq	r2,zero,1024b4 <alt_onchip_flash_get_info+0x3c>
  1024a4:	e0bffc17 	ldw	r2,-16(fp)
  1024a8:	10c00c17 	ldw	r3,48(r2)
  1024ac:	e0bfff17 	ldw	r2,-4(fp)
  1024b0:	10c00015 	stw	r3,0(r2)
  1024b4:	e0bffc17 	ldw	r2,-16(fp)
  1024b8:	10800c17 	ldw	r2,48(r2)
  1024bc:	1000031e 	bne	r2,zero,1024cc <alt_onchip_flash_get_info+0x54>
  1024c0:	00bffd04 	movi	r2,-12
  1024c4:	e0bffb15 	stw	r2,-20(fp)
  1024c8:	00000d06 	br	102500 <alt_onchip_flash_get_info+0x88>
  1024cc:	e0bffc17 	ldw	r2,-16(fp)
  1024d0:	10800c17 	ldw	r2,48(r2)
  1024d4:	10800250 	cmplti	r2,r2,9
  1024d8:	1000031e 	bne	r2,zero,1024e8 <alt_onchip_flash_get_info+0x70>
  1024dc:	00bffc84 	movi	r2,-14
  1024e0:	e0bffb15 	stw	r2,-20(fp)
  1024e4:	00000606 	br	102500 <alt_onchip_flash_get_info+0x88>
  1024e8:	e0bffe17 	ldw	r2,-8(fp)
  1024ec:	10000426 	beq	r2,zero,102500 <alt_onchip_flash_get_info+0x88>
  1024f0:	e0bffc17 	ldw	r2,-16(fp)
  1024f4:	10c00d04 	addi	r3,r2,52
  1024f8:	e0bffe17 	ldw	r2,-8(fp)
  1024fc:	10c00015 	stw	r3,0(r2)
  102500:	e0bffb17 	ldw	r2,-20(fp)
  102504:	e037883a 	mov	sp,fp
  102508:	df000017 	ldw	fp,0(sp)
  10250c:	dec00104 	addi	sp,sp,4
  102510:	f800283a 	ret

00102514 <alt_onchip_flash_erase_block>:
  102514:	defff904 	addi	sp,sp,-28
  102518:	dfc00615 	stw	ra,24(sp)
  10251c:	df000515 	stw	fp,20(sp)
  102520:	df000504 	addi	fp,sp,20
  102524:	e13ffe15 	stw	r4,-8(fp)
  102528:	e17fff15 	stw	r5,-4(fp)
  10252c:	e03ffb15 	stw	zero,-20(fp)
  102530:	e0bffe17 	ldw	r2,-8(fp)
  102534:	e0bffc15 	stw	r2,-16(fp)
  102538:	e0bffc17 	ldw	r2,-16(fp)
  10253c:	10800b17 	ldw	r2,44(r2)
  102540:	e0ffff17 	ldw	r3,-4(fp)
  102544:	18800216 	blt	r3,r2,102550 <alt_onchip_flash_erase_block+0x3c>
  102548:	00bffc84 	movi	r2,-14
  10254c:	00004606 	br	102668 <alt_onchip_flash_erase_block+0x154>
  102550:	e0bffc17 	ldw	r2,-16(fp)
  102554:	10802f17 	ldw	r2,188(r2)
  102558:	10000326 	beq	r2,zero,102568 <alt_onchip_flash_erase_block+0x54>
  10255c:	e0bffc17 	ldw	r2,-16(fp)
  102560:	10802e17 	ldw	r2,184(r2)
  102564:	10000226 	beq	r2,zero,102570 <alt_onchip_flash_erase_block+0x5c>
  102568:	00bffb44 	movi	r2,-19
  10256c:	00003e06 	br	102668 <alt_onchip_flash_erase_block+0x154>
  102570:	e0bffc17 	ldw	r2,-16(fp)
  102574:	10803f17 	ldw	r2,252(r2)
  102578:	10ffffc4 	addi	r3,r2,-1
  10257c:	e0bfff17 	ldw	r2,-4(fp)
  102580:	1884703a 	and	r2,r3,r2
  102584:	10000226 	beq	r2,zero,102590 <alt_onchip_flash_erase_block+0x7c>
  102588:	00bffa84 	movi	r2,-22
  10258c:	00003606 	br	102668 <alt_onchip_flash_erase_block+0x154>
  102590:	e13ffc17 	ldw	r4,-16(fp)
  102594:	01030f00 	call	1030f0 <alt_onchip_flash_poll_for_status_to_go_idle>
  102598:	e0bffb15 	stw	r2,-20(fp)
  10259c:	e0bffb17 	ldw	r2,-20(fp)
  1025a0:	10000226 	beq	r2,zero,1025ac <alt_onchip_flash_erase_block+0x98>
  1025a4:	e0bffb17 	ldw	r2,-20(fp)
  1025a8:	00002f06 	br	102668 <alt_onchip_flash_erase_block+0x154>
  1025ac:	e0bffc17 	ldw	r2,-16(fp)
  1025b0:	10802f17 	ldw	r2,188(r2)
  1025b4:	10c00104 	addi	r3,r2,4
  1025b8:	e0bffc17 	ldw	r2,-16(fp)
  1025bc:	10802f17 	ldw	r2,188(r2)
  1025c0:	10800104 	addi	r2,r2,4
  1025c4:	10800037 	ldwio	r2,0(r2)
  1025c8:	113c002c 	andhi	r4,r2,61440
  1025cc:	00802034 	movhi	r2,128
  1025d0:	10bfffc4 	addi	r2,r2,-1
  1025d4:	2084b03a 	or	r2,r4,r2
  1025d8:	18800035 	stwio	r2,0(r3)
  1025dc:	e0bfff17 	ldw	r2,-4(fp)
  1025e0:	1000010e 	bge	r2,zero,1025e8 <alt_onchip_flash_erase_block+0xd4>
  1025e4:	108000c4 	addi	r2,r2,3
  1025e8:	1005d0ba 	srai	r2,r2,2
  1025ec:	e0bffd15 	stw	r2,-12(fp)
  1025f0:	e0bffc17 	ldw	r2,-16(fp)
  1025f4:	10802f17 	ldw	r2,188(r2)
  1025f8:	10800104 	addi	r2,r2,4
  1025fc:	e0fffc17 	ldw	r3,-16(fp)
  102600:	18c02f17 	ldw	r3,188(r3)
  102604:	18c00104 	addi	r3,r3,4
  102608:	18c00037 	ldwio	r3,0(r3)
  10260c:	193c002c 	andhi	r4,r3,61440
  102610:	e0fffd17 	ldw	r3,-12(fp)
  102614:	18c01c34 	orhi	r3,r3,112
  102618:	20c6b03a 	or	r3,r4,r3
  10261c:	10c00035 	stwio	r3,0(r2)
  102620:	e13ffc17 	ldw	r4,-16(fp)
  102624:	01030f00 	call	1030f0 <alt_onchip_flash_poll_for_status_to_go_idle>
  102628:	e0bffb15 	stw	r2,-20(fp)
  10262c:	e13ffc17 	ldw	r4,-16(fp)
  102630:	01031800 	call	103180 <alt_onchip_flash_poll_for_status_erase_passed>
  102634:	e0bffb15 	stw	r2,-20(fp)
  102638:	e0bffc17 	ldw	r2,-16(fp)
  10263c:	10802f17 	ldw	r2,188(r2)
  102640:	10c00104 	addi	r3,r2,4
  102644:	e0bffc17 	ldw	r2,-16(fp)
  102648:	10802f17 	ldw	r2,188(r2)
  10264c:	10800104 	addi	r2,r2,4
  102650:	11000037 	ldwio	r4,0(r2)
  102654:	00840034 	movhi	r2,4096
  102658:	10bfffc4 	addi	r2,r2,-1
  10265c:	2084b03a 	or	r2,r4,r2
  102660:	18800035 	stwio	r2,0(r3)
  102664:	e0bffb17 	ldw	r2,-20(fp)
  102668:	e037883a 	mov	sp,fp
  10266c:	dfc00117 	ldw	ra,4(sp)
  102670:	df000017 	ldw	fp,0(sp)
  102674:	dec00204 	addi	sp,sp,8
  102678:	f800283a 	ret

0010267c <alt_onchip_flash_write_block>:
  10267c:	defff204 	addi	sp,sp,-56
  102680:	dfc00d15 	stw	ra,52(sp)
  102684:	df000c15 	stw	fp,48(sp)
  102688:	df000c04 	addi	fp,sp,48
  10268c:	e13ffc15 	stw	r4,-16(fp)
  102690:	e17ffd15 	stw	r5,-12(fp)
  102694:	e1bffe15 	stw	r6,-8(fp)
  102698:	e1ffff15 	stw	r7,-4(fp)
  10269c:	e03ff415 	stw	zero,-48(fp)
  1026a0:	e0bffc17 	ldw	r2,-16(fp)
  1026a4:	e0bff815 	stw	r2,-32(fp)
  1026a8:	e03ff515 	stw	zero,-44(fp)
  1026ac:	e0bffe17 	ldw	r2,-8(fp)
  1026b0:	e0bff615 	stw	r2,-40(fp)
  1026b4:	e0bff817 	ldw	r2,-32(fp)
  1026b8:	10800b17 	ldw	r2,44(r2)
  1026bc:	e0fffd17 	ldw	r3,-12(fp)
  1026c0:	18800a0e 	bge	r3,r2,1026ec <alt_onchip_flash_write_block+0x70>
  1026c4:	e0bff817 	ldw	r2,-32(fp)
  1026c8:	10800b17 	ldw	r2,44(r2)
  1026cc:	e0fffe17 	ldw	r3,-8(fp)
  1026d0:	1880060e 	bge	r3,r2,1026ec <alt_onchip_flash_write_block+0x70>
  1026d4:	e0bff817 	ldw	r2,-32(fp)
  1026d8:	10c00b17 	ldw	r3,44(r2)
  1026dc:	e0bffe17 	ldw	r2,-8(fp)
  1026e0:	1887c83a 	sub	r3,r3,r2
  1026e4:	e0800217 	ldw	r2,8(fp)
  1026e8:	1880020e 	bge	r3,r2,1026f4 <alt_onchip_flash_write_block+0x78>
  1026ec:	00bffc84 	movi	r2,-14
  1026f0:	00008e06 	br	10292c <alt_onchip_flash_write_block+0x2b0>
  1026f4:	e0bff817 	ldw	r2,-32(fp)
  1026f8:	10802f17 	ldw	r2,188(r2)
  1026fc:	10000326 	beq	r2,zero,10270c <alt_onchip_flash_write_block+0x90>
  102700:	e0bff817 	ldw	r2,-32(fp)
  102704:	10802e17 	ldw	r2,184(r2)
  102708:	10000226 	beq	r2,zero,102714 <alt_onchip_flash_write_block+0x98>
  10270c:	00bffb44 	movi	r2,-19
  102710:	00008606 	br	10292c <alt_onchip_flash_write_block+0x2b0>
  102714:	e13ff817 	ldw	r4,-32(fp)
  102718:	01030f00 	call	1030f0 <alt_onchip_flash_poll_for_status_to_go_idle>
  10271c:	e0bff415 	stw	r2,-48(fp)
  102720:	e0bff417 	ldw	r2,-48(fp)
  102724:	10000226 	beq	r2,zero,102730 <alt_onchip_flash_write_block+0xb4>
  102728:	e0bff417 	ldw	r2,-48(fp)
  10272c:	00007f06 	br	10292c <alt_onchip_flash_write_block+0x2b0>
  102730:	e0bff817 	ldw	r2,-32(fp)
  102734:	10802f17 	ldw	r2,188(r2)
  102738:	10c00104 	addi	r3,r2,4
  10273c:	e0bff817 	ldw	r2,-32(fp)
  102740:	10802f17 	ldw	r2,188(r2)
  102744:	10800104 	addi	r2,r2,4
  102748:	10800037 	ldwio	r2,0(r2)
  10274c:	113c002c 	andhi	r4,r2,61440
  102750:	00802034 	movhi	r2,128
  102754:	10bfffc4 	addi	r2,r2,-1
  102758:	2084b03a 	or	r2,r4,r2
  10275c:	18800035 	stwio	r2,0(r3)
  102760:	00006406 	br	1028f4 <alt_onchip_flash_write_block+0x278>
  102764:	00bfffc4 	movi	r2,-1
  102768:	e0bffb15 	stw	r2,-20(fp)
  10276c:	e0bff617 	ldw	r2,-40(fp)
  102770:	108000cc 	andi	r2,r2,3
  102774:	10001d1e 	bne	r2,zero,1027ec <alt_onchip_flash_write_block+0x170>
  102778:	e0bff617 	ldw	r2,-40(fp)
  10277c:	10c00104 	addi	r3,r2,4
  102780:	00bfff04 	movi	r2,-4
  102784:	1884703a 	and	r2,r3,r2
  102788:	e0bff715 	stw	r2,-36(fp)
  10278c:	e0fff717 	ldw	r3,-36(fp)
  102790:	e0bff617 	ldw	r2,-40(fp)
  102794:	1885c83a 	sub	r2,r3,r2
  102798:	e0c00217 	ldw	r3,8(fp)
  10279c:	1880010e 	bge	r3,r2,1027a4 <alt_onchip_flash_write_block+0x128>
  1027a0:	1805883a 	mov	r2,r3
  1027a4:	e0bff915 	stw	r2,-28(fp)
  1027a8:	e0bff517 	ldw	r2,-44(fp)
  1027ac:	e0ffff17 	ldw	r3,-4(fp)
  1027b0:	1887883a 	add	r3,r3,r2
  1027b4:	e0bff917 	ldw	r2,-28(fp)
  1027b8:	e13ffb04 	addi	r4,fp,-20
  1027bc:	180b883a 	mov	r5,r3
  1027c0:	100d883a 	mov	r6,r2
  1027c4:	0103d700 	call	103d70 <memcpy>
  1027c8:	e0fff517 	ldw	r3,-44(fp)
  1027cc:	e0bff917 	ldw	r2,-28(fp)
  1027d0:	1885883a 	add	r2,r3,r2
  1027d4:	e0bff515 	stw	r2,-44(fp)
  1027d8:	e0c00217 	ldw	r3,8(fp)
  1027dc:	e0bff917 	ldw	r2,-28(fp)
  1027e0:	1885c83a 	sub	r2,r3,r2
  1027e4:	e0800215 	stw	r2,8(fp)
  1027e8:	00002e06 	br	1028a4 <alt_onchip_flash_write_block+0x228>
  1027ec:	e0bff617 	ldw	r2,-40(fp)
  1027f0:	108000cc 	andi	r2,r2,3
  1027f4:	e0bffa15 	stw	r2,-24(fp)
  1027f8:	e0fff617 	ldw	r3,-40(fp)
  1027fc:	e0bffa17 	ldw	r2,-24(fp)
  102800:	1885c83a 	sub	r2,r3,r2
  102804:	e0bff615 	stw	r2,-40(fp)
  102808:	e0bff617 	ldw	r2,-40(fp)
  10280c:	10c00104 	addi	r3,r2,4
  102810:	00bfff04 	movi	r2,-4
  102814:	1884703a 	and	r2,r3,r2
  102818:	e0bff715 	stw	r2,-36(fp)
  10281c:	e0fff717 	ldw	r3,-36(fp)
  102820:	e0bff617 	ldw	r2,-40(fp)
  102824:	1889c83a 	sub	r4,r3,r2
  102828:	e0c00217 	ldw	r3,8(fp)
  10282c:	e0bffa17 	ldw	r2,-24(fp)
  102830:	1887883a 	add	r3,r3,r2
  102834:	2005883a 	mov	r2,r4
  102838:	1880010e 	bge	r3,r2,102840 <alt_onchip_flash_write_block+0x1c4>
  10283c:	1805883a 	mov	r2,r3
  102840:	e0bff915 	stw	r2,-28(fp)
  102844:	e0fffb04 	addi	r3,fp,-20
  102848:	e0bffa17 	ldw	r2,-24(fp)
  10284c:	1885883a 	add	r2,r3,r2
  102850:	1009883a 	mov	r4,r2
  102854:	e0bff517 	ldw	r2,-44(fp)
  102858:	e0ffff17 	ldw	r3,-4(fp)
  10285c:	188b883a 	add	r5,r3,r2
  102860:	e0fff917 	ldw	r3,-28(fp)
  102864:	e0bffa17 	ldw	r2,-24(fp)
  102868:	1885c83a 	sub	r2,r3,r2
  10286c:	100d883a 	mov	r6,r2
  102870:	0103d700 	call	103d70 <memcpy>
  102874:	e0fff917 	ldw	r3,-28(fp)
  102878:	e0bffa17 	ldw	r2,-24(fp)
  10287c:	1885c83a 	sub	r2,r3,r2
  102880:	e0fff517 	ldw	r3,-44(fp)
  102884:	1885883a 	add	r2,r3,r2
  102888:	e0bff515 	stw	r2,-44(fp)
  10288c:	e0fffa17 	ldw	r3,-24(fp)
  102890:	e0bff917 	ldw	r2,-28(fp)
  102894:	1885c83a 	sub	r2,r3,r2
  102898:	e0c00217 	ldw	r3,8(fp)
  10289c:	1885883a 	add	r2,r3,r2
  1028a0:	e0800215 	stw	r2,8(fp)
  1028a4:	e0bff817 	ldw	r2,-32(fp)
  1028a8:	10c00a17 	ldw	r3,40(r2)
  1028ac:	e0bff617 	ldw	r2,-40(fp)
  1028b0:	1885883a 	add	r2,r3,r2
  1028b4:	e0fffb17 	ldw	r3,-20(fp)
  1028b8:	10c00035 	stwio	r3,0(r2)
  1028bc:	e13ff817 	ldw	r4,-32(fp)
  1028c0:	01030f00 	call	1030f0 <alt_onchip_flash_poll_for_status_to_go_idle>
  1028c4:	e0bff415 	stw	r2,-48(fp)
  1028c8:	e0bff417 	ldw	r2,-48(fp)
  1028cc:	10000126 	beq	r2,zero,1028d4 <alt_onchip_flash_write_block+0x258>
  1028d0:	00000a06 	br	1028fc <alt_onchip_flash_write_block+0x280>
  1028d4:	e13ff817 	ldw	r4,-32(fp)
  1028d8:	01032100 	call	103210 <alt_onchip_flash_poll_for_status_write_passed>
  1028dc:	e0bff415 	stw	r2,-48(fp)
  1028e0:	e0bff417 	ldw	r2,-48(fp)
  1028e4:	10000126 	beq	r2,zero,1028ec <alt_onchip_flash_write_block+0x270>
  1028e8:	00000406 	br	1028fc <alt_onchip_flash_write_block+0x280>
  1028ec:	e0bff717 	ldw	r2,-36(fp)
  1028f0:	e0bff615 	stw	r2,-40(fp)
  1028f4:	e0800217 	ldw	r2,8(fp)
  1028f8:	103f9a1e 	bne	r2,zero,102764 <_gp+0xffef9f9c>
  1028fc:	e0bff817 	ldw	r2,-32(fp)
  102900:	10802f17 	ldw	r2,188(r2)
  102904:	10c00104 	addi	r3,r2,4
  102908:	e0bff817 	ldw	r2,-32(fp)
  10290c:	10802f17 	ldw	r2,188(r2)
  102910:	10800104 	addi	r2,r2,4
  102914:	11000037 	ldwio	r4,0(r2)
  102918:	00840034 	movhi	r2,4096
  10291c:	10bfffc4 	addi	r2,r2,-1
  102920:	2084b03a 	or	r2,r4,r2
  102924:	18800035 	stwio	r2,0(r3)
  102928:	e0bff417 	ldw	r2,-48(fp)
  10292c:	e037883a 	mov	sp,fp
  102930:	dfc00117 	ldw	ra,4(sp)
  102934:	df000017 	ldw	fp,0(sp)
  102938:	dec00204 	addi	sp,sp,8
  10293c:	f800283a 	ret

00102940 <alt_onchip_flash_write>:
  102940:	defff104 	addi	sp,sp,-60
  102944:	dfc00e15 	stw	ra,56(sp)
  102948:	df000d15 	stw	fp,52(sp)
  10294c:	df000d04 	addi	fp,sp,52
  102950:	e13ffc15 	stw	r4,-16(fp)
  102954:	e17ffd15 	stw	r5,-12(fp)
  102958:	e1bffe15 	stw	r6,-8(fp)
  10295c:	e1ffff15 	stw	r7,-4(fp)
  102960:	e03ff415 	stw	zero,-48(fp)
  102964:	e0bfff17 	ldw	r2,-4(fp)
  102968:	e0bff815 	stw	r2,-32(fp)
  10296c:	e0bffd17 	ldw	r2,-12(fp)
  102970:	e0bff915 	stw	r2,-28(fp)
  102974:	e0bffc17 	ldw	r2,-16(fp)
  102978:	e0bffa15 	stw	r2,-24(fp)
  10297c:	e0bffa17 	ldw	r2,-24(fp)
  102980:	10800b17 	ldw	r2,44(r2)
  102984:	e0fffd17 	ldw	r3,-12(fp)
  102988:	1880060e 	bge	r3,r2,1029a4 <alt_onchip_flash_write+0x64>
  10298c:	e0bffa17 	ldw	r2,-24(fp)
  102990:	10c00b17 	ldw	r3,44(r2)
  102994:	e0bffd17 	ldw	r2,-12(fp)
  102998:	1887c83a 	sub	r3,r3,r2
  10299c:	e0bfff17 	ldw	r2,-4(fp)
  1029a0:	1880020e 	bge	r3,r2,1029ac <alt_onchip_flash_write+0x6c>
  1029a4:	00bffc84 	movi	r2,-14
  1029a8:	00009606 	br	102c04 <alt_onchip_flash_write+0x2c4>
  1029ac:	e03ff515 	stw	zero,-44(fp)
  1029b0:	00008706 	br	102bd0 <alt_onchip_flash_write+0x290>
  1029b4:	e0fffa17 	ldw	r3,-24(fp)
  1029b8:	e0bff517 	ldw	r2,-44(fp)
  1029bc:	1004913a 	slli	r2,r2,4
  1029c0:	10800d04 	addi	r2,r2,52
  1029c4:	1885883a 	add	r2,r3,r2
  1029c8:	10800017 	ldw	r2,0(r2)
  1029cc:	e0fffd17 	ldw	r3,-12(fp)
  1029d0:	18807c16 	blt	r3,r2,102bc4 <alt_onchip_flash_write+0x284>
  1029d4:	e0fffa17 	ldw	r3,-24(fp)
  1029d8:	e0bff517 	ldw	r2,-44(fp)
  1029dc:	1004913a 	slli	r2,r2,4
  1029e0:	10800d04 	addi	r2,r2,52
  1029e4:	1885883a 	add	r2,r3,r2
  1029e8:	10c00017 	ldw	r3,0(r2)
  1029ec:	e13ffa17 	ldw	r4,-24(fp)
  1029f0:	e0bff517 	ldw	r2,-44(fp)
  1029f4:	1004913a 	slli	r2,r2,4
  1029f8:	10800e04 	addi	r2,r2,56
  1029fc:	2085883a 	add	r2,r4,r2
  102a00:	10800017 	ldw	r2,0(r2)
  102a04:	1885883a 	add	r2,r3,r2
  102a08:	e0fffd17 	ldw	r3,-12(fp)
  102a0c:	18806d0e 	bge	r3,r2,102bc4 <alt_onchip_flash_write+0x284>
  102a10:	e0fffa17 	ldw	r3,-24(fp)
  102a14:	e0bff517 	ldw	r2,-44(fp)
  102a18:	1004913a 	slli	r2,r2,4
  102a1c:	10800d04 	addi	r2,r2,52
  102a20:	1885883a 	add	r2,r3,r2
  102a24:	10800017 	ldw	r2,0(r2)
  102a28:	e0bff715 	stw	r2,-36(fp)
  102a2c:	e03ff615 	stw	zero,-40(fp)
  102a30:	00005c06 	br	102ba4 <alt_onchip_flash_write+0x264>
  102a34:	e0fffd17 	ldw	r3,-12(fp)
  102a38:	e0bff717 	ldw	r2,-36(fp)
  102a3c:	18804d16 	blt	r3,r2,102b74 <alt_onchip_flash_write+0x234>
  102a40:	e0fffa17 	ldw	r3,-24(fp)
  102a44:	e0bff517 	ldw	r2,-44(fp)
  102a48:	10800104 	addi	r2,r2,4
  102a4c:	1004913a 	slli	r2,r2,4
  102a50:	1885883a 	add	r2,r3,r2
  102a54:	10c00017 	ldw	r3,0(r2)
  102a58:	e0bff717 	ldw	r2,-36(fp)
  102a5c:	1885883a 	add	r2,r3,r2
  102a60:	e0fffd17 	ldw	r3,-12(fp)
  102a64:	1880430e 	bge	r3,r2,102b74 <alt_onchip_flash_write+0x234>
  102a68:	e0fffa17 	ldw	r3,-24(fp)
  102a6c:	e0bff517 	ldw	r2,-44(fp)
  102a70:	10800104 	addi	r2,r2,4
  102a74:	1004913a 	slli	r2,r2,4
  102a78:	1885883a 	add	r2,r3,r2
  102a7c:	10c00017 	ldw	r3,0(r2)
  102a80:	e0bff717 	ldw	r2,-36(fp)
  102a84:	1887883a 	add	r3,r3,r2
  102a88:	e0bffd17 	ldw	r2,-12(fp)
  102a8c:	1885c83a 	sub	r2,r3,r2
  102a90:	e0bffb15 	stw	r2,-20(fp)
  102a94:	e0fffb17 	ldw	r3,-20(fp)
  102a98:	e0bfff17 	ldw	r2,-4(fp)
  102a9c:	1880010e 	bge	r3,r2,102aa4 <alt_onchip_flash_write+0x164>
  102aa0:	1805883a 	mov	r2,r3
  102aa4:	e0bffb15 	stw	r2,-20(fp)
  102aa8:	e0bffa17 	ldw	r2,-24(fp)
  102aac:	10c00a17 	ldw	r3,40(r2)
  102ab0:	e0bffd17 	ldw	r2,-12(fp)
  102ab4:	1887883a 	add	r3,r3,r2
  102ab8:	e0bffb17 	ldw	r2,-20(fp)
  102abc:	e13ffe17 	ldw	r4,-8(fp)
  102ac0:	180b883a 	mov	r5,r3
  102ac4:	100d883a 	mov	r6,r2
  102ac8:	0103cf40 	call	103cf4 <memcmp>
  102acc:	10001326 	beq	r2,zero,102b1c <alt_onchip_flash_write+0x1dc>
  102ad0:	e0bffa17 	ldw	r2,-24(fp)
  102ad4:	10800817 	ldw	r2,32(r2)
  102ad8:	e0fffa17 	ldw	r3,-24(fp)
  102adc:	1809883a 	mov	r4,r3
  102ae0:	e17ff717 	ldw	r5,-36(fp)
  102ae4:	103ee83a 	callr	r2
  102ae8:	e0bff415 	stw	r2,-48(fp)
  102aec:	e0bff417 	ldw	r2,-48(fp)
  102af0:	10000a1e 	bne	r2,zero,102b1c <alt_onchip_flash_write+0x1dc>
  102af4:	e0bffa17 	ldw	r2,-24(fp)
  102af8:	10800917 	ldw	r2,36(r2)
  102afc:	e13ffa17 	ldw	r4,-24(fp)
  102b00:	e0fffb17 	ldw	r3,-20(fp)
  102b04:	d8c00015 	stw	r3,0(sp)
  102b08:	e17ff717 	ldw	r5,-36(fp)
  102b0c:	e1bffd17 	ldw	r6,-12(fp)
  102b10:	e1fffe17 	ldw	r7,-8(fp)
  102b14:	103ee83a 	callr	r2
  102b18:	e0bff415 	stw	r2,-48(fp)
  102b1c:	e0ffff17 	ldw	r3,-4(fp)
  102b20:	e0bffb17 	ldw	r2,-20(fp)
  102b24:	18802e26 	beq	r3,r2,102be0 <alt_onchip_flash_write+0x2a0>
  102b28:	e0bff417 	ldw	r2,-48(fp)
  102b2c:	10002c1e 	bne	r2,zero,102be0 <alt_onchip_flash_write+0x2a0>
  102b30:	e0ffff17 	ldw	r3,-4(fp)
  102b34:	e0bffb17 	ldw	r2,-20(fp)
  102b38:	1885c83a 	sub	r2,r3,r2
  102b3c:	e0bfff15 	stw	r2,-4(fp)
  102b40:	e0fffa17 	ldw	r3,-24(fp)
  102b44:	e0bff517 	ldw	r2,-44(fp)
  102b48:	10800104 	addi	r2,r2,4
  102b4c:	1004913a 	slli	r2,r2,4
  102b50:	1885883a 	add	r2,r3,r2
  102b54:	10c00017 	ldw	r3,0(r2)
  102b58:	e0bff717 	ldw	r2,-36(fp)
  102b5c:	1885883a 	add	r2,r3,r2
  102b60:	e0bffd15 	stw	r2,-12(fp)
  102b64:	e0bffb17 	ldw	r2,-20(fp)
  102b68:	e0fffe17 	ldw	r3,-8(fp)
  102b6c:	1885883a 	add	r2,r3,r2
  102b70:	e0bffe15 	stw	r2,-8(fp)
  102b74:	e0fffa17 	ldw	r3,-24(fp)
  102b78:	e0bff517 	ldw	r2,-44(fp)
  102b7c:	10800104 	addi	r2,r2,4
  102b80:	1004913a 	slli	r2,r2,4
  102b84:	1885883a 	add	r2,r3,r2
  102b88:	10800017 	ldw	r2,0(r2)
  102b8c:	e0fff717 	ldw	r3,-36(fp)
  102b90:	1885883a 	add	r2,r3,r2
  102b94:	e0bff715 	stw	r2,-36(fp)
  102b98:	e0bff617 	ldw	r2,-40(fp)
  102b9c:	10800044 	addi	r2,r2,1
  102ba0:	e0bff615 	stw	r2,-40(fp)
  102ba4:	e0fffa17 	ldw	r3,-24(fp)
  102ba8:	e0bff517 	ldw	r2,-44(fp)
  102bac:	1004913a 	slli	r2,r2,4
  102bb0:	10800f04 	addi	r2,r2,60
  102bb4:	1885883a 	add	r2,r3,r2
  102bb8:	10800017 	ldw	r2,0(r2)
  102bbc:	e0fff617 	ldw	r3,-40(fp)
  102bc0:	18bf9c16 	blt	r3,r2,102a34 <_gp+0xffefa26c>
  102bc4:	e0bff517 	ldw	r2,-44(fp)
  102bc8:	10800044 	addi	r2,r2,1
  102bcc:	e0bff515 	stw	r2,-44(fp)
  102bd0:	e0bffa17 	ldw	r2,-24(fp)
  102bd4:	10800c17 	ldw	r2,48(r2)
  102bd8:	e0fff517 	ldw	r3,-44(fp)
  102bdc:	18bf7516 	blt	r3,r2,1029b4 <_gp+0xffefa1ec>
  102be0:	e0bffa17 	ldw	r2,-24(fp)
  102be4:	10c00a17 	ldw	r3,40(r2)
  102be8:	e0bff917 	ldw	r2,-28(fp)
  102bec:	1887883a 	add	r3,r3,r2
  102bf0:	e0bff817 	ldw	r2,-32(fp)
  102bf4:	1809883a 	mov	r4,r3
  102bf8:	100b883a 	mov	r5,r2
  102bfc:	01035200 	call	103520 <alt_dcache_flush>
  102c00:	e0bff417 	ldw	r2,-48(fp)
  102c04:	e037883a 	mov	sp,fp
  102c08:	dfc00117 	ldw	ra,4(sp)
  102c0c:	df000017 	ldw	fp,0(sp)
  102c10:	dec00204 	addi	sp,sp,8
  102c14:	f800283a 	ret

00102c18 <altera_onchip_flash_init>:
  102c18:	defff504 	addi	sp,sp,-44
  102c1c:	dfc00a15 	stw	ra,40(sp)
  102c20:	df000915 	stw	fp,36(sp)
  102c24:	dc000815 	stw	r16,32(sp)
  102c28:	df000904 	addi	fp,sp,36
  102c2c:	e13ffe15 	stw	r4,-8(fp)
  102c30:	e03ff815 	stw	zero,-32(fp)
  102c34:	e03ff915 	stw	zero,-28(fp)
  102c38:	e03ffa15 	stw	zero,-24(fp)
  102c3c:	e03ffb15 	stw	zero,-20(fp)
  102c40:	e03ffc15 	stw	zero,-16(fp)
  102c44:	e03ff715 	stw	zero,-36(fp)
  102c48:	e0bffe17 	ldw	r2,-8(fp)
  102c4c:	10800d04 	addi	r2,r2,52
  102c50:	e0bffd15 	stw	r2,-12(fp)
  102c54:	e0bffe17 	ldw	r2,-8(fp)
  102c58:	10802f17 	ldw	r2,188(r2)
  102c5c:	10001926 	beq	r2,zero,102cc4 <altera_onchip_flash_init+0xac>
  102c60:	e0bffe17 	ldw	r2,-8(fp)
  102c64:	10802f17 	ldw	r2,188(r2)
  102c68:	10800037 	ldwio	r2,0(r2)
  102c6c:	1080080c 	andi	r2,r2,32
  102c70:	e0bff815 	stw	r2,-32(fp)
  102c74:	e0bffe17 	ldw	r2,-8(fp)
  102c78:	10802f17 	ldw	r2,188(r2)
  102c7c:	10800037 	ldwio	r2,0(r2)
  102c80:	1080100c 	andi	r2,r2,64
  102c84:	e0bff915 	stw	r2,-28(fp)
  102c88:	e0bffe17 	ldw	r2,-8(fp)
  102c8c:	10802f17 	ldw	r2,188(r2)
  102c90:	10800037 	ldwio	r2,0(r2)
  102c94:	1080200c 	andi	r2,r2,128
  102c98:	e0bffa15 	stw	r2,-24(fp)
  102c9c:	e0bffe17 	ldw	r2,-8(fp)
  102ca0:	10802f17 	ldw	r2,188(r2)
  102ca4:	10800037 	ldwio	r2,0(r2)
  102ca8:	1080400c 	andi	r2,r2,256
  102cac:	e0bffb15 	stw	r2,-20(fp)
  102cb0:	e0bffe17 	ldw	r2,-8(fp)
  102cb4:	10802f17 	ldw	r2,188(r2)
  102cb8:	10800037 	ldwio	r2,0(r2)
  102cbc:	1080800c 	andi	r2,r2,512
  102cc0:	e0bffc15 	stw	r2,-16(fp)
  102cc4:	e0bffe17 	ldw	r2,-8(fp)
  102cc8:	10803017 	ldw	r2,192(r2)
  102ccc:	10800058 	cmpnei	r2,r2,1
  102cd0:	10002f1e 	bne	r2,zero,102d90 <altera_onchip_flash_init+0x178>
  102cd4:	e0bff817 	ldw	r2,-32(fp)
  102cd8:	10800820 	cmpeqi	r2,r2,32
  102cdc:	10002c1e 	bne	r2,zero,102d90 <altera_onchip_flash_init+0x178>
  102ce0:	e0bff717 	ldw	r2,-36(fp)
  102ce4:	1004913a 	slli	r2,r2,4
  102ce8:	e0fffd17 	ldw	r3,-12(fp)
  102cec:	1885883a 	add	r2,r3,r2
  102cf0:	e0fffe17 	ldw	r3,-8(fp)
  102cf4:	18c03117 	ldw	r3,196(r3)
  102cf8:	10c00015 	stw	r3,0(r2)
  102cfc:	e0bff717 	ldw	r2,-36(fp)
  102d00:	1004913a 	slli	r2,r2,4
  102d04:	e0fffd17 	ldw	r3,-12(fp)
  102d08:	1885883a 	add	r2,r3,r2
  102d0c:	e0fffe17 	ldw	r3,-8(fp)
  102d10:	19003217 	ldw	r4,200(r3)
  102d14:	e0fffe17 	ldw	r3,-8(fp)
  102d18:	18c03117 	ldw	r3,196(r3)
  102d1c:	20c7c83a 	sub	r3,r4,r3
  102d20:	18c00044 	addi	r3,r3,1
  102d24:	10c00115 	stw	r3,4(r2)
  102d28:	e0bff717 	ldw	r2,-36(fp)
  102d2c:	1004913a 	slli	r2,r2,4
  102d30:	e0fffd17 	ldw	r3,-12(fp)
  102d34:	18a1883a 	add	r16,r3,r2
  102d38:	e0fffe17 	ldw	r3,-8(fp)
  102d3c:	e0bff717 	ldw	r2,-36(fp)
  102d40:	1004913a 	slli	r2,r2,4
  102d44:	10800e04 	addi	r2,r2,56
  102d48:	1885883a 	add	r2,r3,r2
  102d4c:	10c00017 	ldw	r3,0(r2)
  102d50:	e0bffe17 	ldw	r2,-8(fp)
  102d54:	10803f17 	ldw	r2,252(r2)
  102d58:	1809883a 	mov	r4,r3
  102d5c:	100b883a 	mov	r5,r2
  102d60:	01014380 	call	101438 <__divsi3>
  102d64:	80800215 	stw	r2,8(r16)
  102d68:	e0bff717 	ldw	r2,-36(fp)
  102d6c:	1004913a 	slli	r2,r2,4
  102d70:	e0fffd17 	ldw	r3,-12(fp)
  102d74:	1885883a 	add	r2,r3,r2
  102d78:	e0fffe17 	ldw	r3,-8(fp)
  102d7c:	18c03f17 	ldw	r3,252(r3)
  102d80:	10c00315 	stw	r3,12(r2)
  102d84:	e0bff717 	ldw	r2,-36(fp)
  102d88:	10800044 	addi	r2,r2,1
  102d8c:	e0bff715 	stw	r2,-36(fp)
  102d90:	e0bffe17 	ldw	r2,-8(fp)
  102d94:	10803317 	ldw	r2,204(r2)
  102d98:	10800058 	cmpnei	r2,r2,1
  102d9c:	10002f1e 	bne	r2,zero,102e5c <altera_onchip_flash_init+0x244>
  102da0:	e0bff917 	ldw	r2,-28(fp)
  102da4:	10801020 	cmpeqi	r2,r2,64
  102da8:	10002c1e 	bne	r2,zero,102e5c <altera_onchip_flash_init+0x244>
  102dac:	e0bff717 	ldw	r2,-36(fp)
  102db0:	1004913a 	slli	r2,r2,4
  102db4:	e0fffd17 	ldw	r3,-12(fp)
  102db8:	1885883a 	add	r2,r3,r2
  102dbc:	e0fffe17 	ldw	r3,-8(fp)
  102dc0:	18c03417 	ldw	r3,208(r3)
  102dc4:	10c00015 	stw	r3,0(r2)
  102dc8:	e0bff717 	ldw	r2,-36(fp)
  102dcc:	1004913a 	slli	r2,r2,4
  102dd0:	e0fffd17 	ldw	r3,-12(fp)
  102dd4:	1885883a 	add	r2,r3,r2
  102dd8:	e0fffe17 	ldw	r3,-8(fp)
  102ddc:	19003517 	ldw	r4,212(r3)
  102de0:	e0fffe17 	ldw	r3,-8(fp)
  102de4:	18c03417 	ldw	r3,208(r3)
  102de8:	20c7c83a 	sub	r3,r4,r3
  102dec:	18c00044 	addi	r3,r3,1
  102df0:	10c00115 	stw	r3,4(r2)
  102df4:	e0bff717 	ldw	r2,-36(fp)
  102df8:	1004913a 	slli	r2,r2,4
  102dfc:	e0fffd17 	ldw	r3,-12(fp)
  102e00:	18a1883a 	add	r16,r3,r2
  102e04:	e0fffe17 	ldw	r3,-8(fp)
  102e08:	e0bff717 	ldw	r2,-36(fp)
  102e0c:	1004913a 	slli	r2,r2,4
  102e10:	10800e04 	addi	r2,r2,56
  102e14:	1885883a 	add	r2,r3,r2
  102e18:	10c00017 	ldw	r3,0(r2)
  102e1c:	e0bffe17 	ldw	r2,-8(fp)
  102e20:	10803f17 	ldw	r2,252(r2)
  102e24:	1809883a 	mov	r4,r3
  102e28:	100b883a 	mov	r5,r2
  102e2c:	01014380 	call	101438 <__divsi3>
  102e30:	80800215 	stw	r2,8(r16)
  102e34:	e0bff717 	ldw	r2,-36(fp)
  102e38:	1004913a 	slli	r2,r2,4
  102e3c:	e0fffd17 	ldw	r3,-12(fp)
  102e40:	1885883a 	add	r2,r3,r2
  102e44:	e0fffe17 	ldw	r3,-8(fp)
  102e48:	18c03f17 	ldw	r3,252(r3)
  102e4c:	10c00315 	stw	r3,12(r2)
  102e50:	e0bff717 	ldw	r2,-36(fp)
  102e54:	10800044 	addi	r2,r2,1
  102e58:	e0bff715 	stw	r2,-36(fp)
  102e5c:	e0bffe17 	ldw	r2,-8(fp)
  102e60:	10803617 	ldw	r2,216(r2)
  102e64:	10800058 	cmpnei	r2,r2,1
  102e68:	10002f1e 	bne	r2,zero,102f28 <altera_onchip_flash_init+0x310>
  102e6c:	e0bffa17 	ldw	r2,-24(fp)
  102e70:	10802020 	cmpeqi	r2,r2,128
  102e74:	10002c1e 	bne	r2,zero,102f28 <altera_onchip_flash_init+0x310>
  102e78:	e0bff717 	ldw	r2,-36(fp)
  102e7c:	1004913a 	slli	r2,r2,4
  102e80:	e0fffd17 	ldw	r3,-12(fp)
  102e84:	1885883a 	add	r2,r3,r2
  102e88:	e0fffe17 	ldw	r3,-8(fp)
  102e8c:	18c03717 	ldw	r3,220(r3)
  102e90:	10c00015 	stw	r3,0(r2)
  102e94:	e0bff717 	ldw	r2,-36(fp)
  102e98:	1004913a 	slli	r2,r2,4
  102e9c:	e0fffd17 	ldw	r3,-12(fp)
  102ea0:	1885883a 	add	r2,r3,r2
  102ea4:	e0fffe17 	ldw	r3,-8(fp)
  102ea8:	19003817 	ldw	r4,224(r3)
  102eac:	e0fffe17 	ldw	r3,-8(fp)
  102eb0:	18c03717 	ldw	r3,220(r3)
  102eb4:	20c7c83a 	sub	r3,r4,r3
  102eb8:	18c00044 	addi	r3,r3,1
  102ebc:	10c00115 	stw	r3,4(r2)
  102ec0:	e0bff717 	ldw	r2,-36(fp)
  102ec4:	1004913a 	slli	r2,r2,4
  102ec8:	e0fffd17 	ldw	r3,-12(fp)
  102ecc:	18a1883a 	add	r16,r3,r2
  102ed0:	e0fffe17 	ldw	r3,-8(fp)
  102ed4:	e0bff717 	ldw	r2,-36(fp)
  102ed8:	1004913a 	slli	r2,r2,4
  102edc:	10800e04 	addi	r2,r2,56
  102ee0:	1885883a 	add	r2,r3,r2
  102ee4:	10c00017 	ldw	r3,0(r2)
  102ee8:	e0bffe17 	ldw	r2,-8(fp)
  102eec:	10803f17 	ldw	r2,252(r2)
  102ef0:	1809883a 	mov	r4,r3
  102ef4:	100b883a 	mov	r5,r2
  102ef8:	01014380 	call	101438 <__divsi3>
  102efc:	80800215 	stw	r2,8(r16)
  102f00:	e0bff717 	ldw	r2,-36(fp)
  102f04:	1004913a 	slli	r2,r2,4
  102f08:	e0fffd17 	ldw	r3,-12(fp)
  102f0c:	1885883a 	add	r2,r3,r2
  102f10:	e0fffe17 	ldw	r3,-8(fp)
  102f14:	18c03f17 	ldw	r3,252(r3)
  102f18:	10c00315 	stw	r3,12(r2)
  102f1c:	e0bff717 	ldw	r2,-36(fp)
  102f20:	10800044 	addi	r2,r2,1
  102f24:	e0bff715 	stw	r2,-36(fp)
  102f28:	e0bffe17 	ldw	r2,-8(fp)
  102f2c:	10803917 	ldw	r2,228(r2)
  102f30:	10800058 	cmpnei	r2,r2,1
  102f34:	10002f1e 	bne	r2,zero,102ff4 <altera_onchip_flash_init+0x3dc>
  102f38:	e0bffb17 	ldw	r2,-20(fp)
  102f3c:	10804020 	cmpeqi	r2,r2,256
  102f40:	10002c1e 	bne	r2,zero,102ff4 <altera_onchip_flash_init+0x3dc>
  102f44:	e0bff717 	ldw	r2,-36(fp)
  102f48:	1004913a 	slli	r2,r2,4
  102f4c:	e0fffd17 	ldw	r3,-12(fp)
  102f50:	1885883a 	add	r2,r3,r2
  102f54:	e0fffe17 	ldw	r3,-8(fp)
  102f58:	18c03a17 	ldw	r3,232(r3)
  102f5c:	10c00015 	stw	r3,0(r2)
  102f60:	e0bff717 	ldw	r2,-36(fp)
  102f64:	1004913a 	slli	r2,r2,4
  102f68:	e0fffd17 	ldw	r3,-12(fp)
  102f6c:	1885883a 	add	r2,r3,r2
  102f70:	e0fffe17 	ldw	r3,-8(fp)
  102f74:	19003b17 	ldw	r4,236(r3)
  102f78:	e0fffe17 	ldw	r3,-8(fp)
  102f7c:	18c03a17 	ldw	r3,232(r3)
  102f80:	20c7c83a 	sub	r3,r4,r3
  102f84:	18c00044 	addi	r3,r3,1
  102f88:	10c00115 	stw	r3,4(r2)
  102f8c:	e0bff717 	ldw	r2,-36(fp)
  102f90:	1004913a 	slli	r2,r2,4
  102f94:	e0fffd17 	ldw	r3,-12(fp)
  102f98:	18a1883a 	add	r16,r3,r2
  102f9c:	e0fffe17 	ldw	r3,-8(fp)
  102fa0:	e0bff717 	ldw	r2,-36(fp)
  102fa4:	1004913a 	slli	r2,r2,4
  102fa8:	10800e04 	addi	r2,r2,56
  102fac:	1885883a 	add	r2,r3,r2
  102fb0:	10c00017 	ldw	r3,0(r2)
  102fb4:	e0bffe17 	ldw	r2,-8(fp)
  102fb8:	10803f17 	ldw	r2,252(r2)
  102fbc:	1809883a 	mov	r4,r3
  102fc0:	100b883a 	mov	r5,r2
  102fc4:	01014380 	call	101438 <__divsi3>
  102fc8:	80800215 	stw	r2,8(r16)
  102fcc:	e0bff717 	ldw	r2,-36(fp)
  102fd0:	1004913a 	slli	r2,r2,4
  102fd4:	e0fffd17 	ldw	r3,-12(fp)
  102fd8:	1885883a 	add	r2,r3,r2
  102fdc:	e0fffe17 	ldw	r3,-8(fp)
  102fe0:	18c03f17 	ldw	r3,252(r3)
  102fe4:	10c00315 	stw	r3,12(r2)
  102fe8:	e0bff717 	ldw	r2,-36(fp)
  102fec:	10800044 	addi	r2,r2,1
  102ff0:	e0bff715 	stw	r2,-36(fp)
  102ff4:	e0bffe17 	ldw	r2,-8(fp)
  102ff8:	10803c17 	ldw	r2,240(r2)
  102ffc:	10800058 	cmpnei	r2,r2,1
  103000:	10002f1e 	bne	r2,zero,1030c0 <altera_onchip_flash_init+0x4a8>
  103004:	e0bffc17 	ldw	r2,-16(fp)
  103008:	10808020 	cmpeqi	r2,r2,512
  10300c:	10002c1e 	bne	r2,zero,1030c0 <altera_onchip_flash_init+0x4a8>
  103010:	e0bff717 	ldw	r2,-36(fp)
  103014:	1004913a 	slli	r2,r2,4
  103018:	e0fffd17 	ldw	r3,-12(fp)
  10301c:	1885883a 	add	r2,r3,r2
  103020:	e0fffe17 	ldw	r3,-8(fp)
  103024:	18c03d17 	ldw	r3,244(r3)
  103028:	10c00015 	stw	r3,0(r2)
  10302c:	e0bff717 	ldw	r2,-36(fp)
  103030:	1004913a 	slli	r2,r2,4
  103034:	e0fffd17 	ldw	r3,-12(fp)
  103038:	1885883a 	add	r2,r3,r2
  10303c:	e0fffe17 	ldw	r3,-8(fp)
  103040:	19003e17 	ldw	r4,248(r3)
  103044:	e0fffe17 	ldw	r3,-8(fp)
  103048:	18c03d17 	ldw	r3,244(r3)
  10304c:	20c7c83a 	sub	r3,r4,r3
  103050:	18c00044 	addi	r3,r3,1
  103054:	10c00115 	stw	r3,4(r2)
  103058:	e0bff717 	ldw	r2,-36(fp)
  10305c:	1004913a 	slli	r2,r2,4
  103060:	e0fffd17 	ldw	r3,-12(fp)
  103064:	18a1883a 	add	r16,r3,r2
  103068:	e0fffe17 	ldw	r3,-8(fp)
  10306c:	e0bff717 	ldw	r2,-36(fp)
  103070:	1004913a 	slli	r2,r2,4
  103074:	10800e04 	addi	r2,r2,56
  103078:	1885883a 	add	r2,r3,r2
  10307c:	10c00017 	ldw	r3,0(r2)
  103080:	e0bffe17 	ldw	r2,-8(fp)
  103084:	10803f17 	ldw	r2,252(r2)
  103088:	1809883a 	mov	r4,r3
  10308c:	100b883a 	mov	r5,r2
  103090:	01014380 	call	101438 <__divsi3>
  103094:	80800215 	stw	r2,8(r16)
  103098:	e0bff717 	ldw	r2,-36(fp)
  10309c:	1004913a 	slli	r2,r2,4
  1030a0:	e0fffd17 	ldw	r3,-12(fp)
  1030a4:	1885883a 	add	r2,r3,r2
  1030a8:	e0fffe17 	ldw	r3,-8(fp)
  1030ac:	18c03f17 	ldw	r3,252(r3)
  1030b0:	10c00315 	stw	r3,12(r2)
  1030b4:	e0bff717 	ldw	r2,-36(fp)
  1030b8:	10800044 	addi	r2,r2,1
  1030bc:	e0bff715 	stw	r2,-36(fp)
  1030c0:	e0bffe17 	ldw	r2,-8(fp)
  1030c4:	e0fff717 	ldw	r3,-36(fp)
  1030c8:	10c00c15 	stw	r3,48(r2)
  1030cc:	e0bffe17 	ldw	r2,-8(fp)
  1030d0:	1009883a 	mov	r4,r2
  1030d4:	01023740 	call	102374 <alt_flash_device_register>
  1030d8:	e6ffff04 	addi	sp,fp,-4
  1030dc:	dfc00217 	ldw	ra,8(sp)
  1030e0:	df000117 	ldw	fp,4(sp)
  1030e4:	dc000017 	ldw	r16,0(sp)
  1030e8:	dec00304 	addi	sp,sp,12
  1030ec:	f800283a 	ret

001030f0 <alt_onchip_flash_poll_for_status_to_go_idle>:
  1030f0:	defffa04 	addi	sp,sp,-24
  1030f4:	dfc00515 	stw	ra,20(sp)
  1030f8:	df000415 	stw	fp,16(sp)
  1030fc:	df000404 	addi	fp,sp,16
  103100:	e13fff15 	stw	r4,-4(fp)
  103104:	e03ffc15 	stw	zero,-16(fp)
  103108:	008002f4 	movhi	r2,11
  10310c:	10ab9804 	addi	r2,r2,-20896
  103110:	e0bffe15 	stw	r2,-8(fp)
  103114:	008002f4 	movhi	r2,11
  103118:	10ab9804 	addi	r2,r2,-20896
  10311c:	e0bffd15 	stw	r2,-12(fp)
  103120:	00000c06 	br	103154 <alt_onchip_flash_poll_for_status_to_go_idle+0x64>
  103124:	01000044 	movi	r4,1
  103128:	01032a00 	call	1032a0 <alt_busy_sleep>
  10312c:	e0bffe17 	ldw	r2,-8(fp)
  103130:	10000826 	beq	r2,zero,103154 <alt_onchip_flash_poll_for_status_to_go_idle+0x64>
  103134:	e0bffd17 	ldw	r2,-12(fp)
  103138:	10bfffc4 	addi	r2,r2,-1
  10313c:	e0bffd15 	stw	r2,-12(fp)
  103140:	e0bffd17 	ldw	r2,-12(fp)
  103144:	1000031e 	bne	r2,zero,103154 <alt_onchip_flash_poll_for_status_to_go_idle+0x64>
  103148:	00bfe304 	movi	r2,-116
  10314c:	e0bffc15 	stw	r2,-16(fp)
  103150:	00000506 	br	103168 <alt_onchip_flash_poll_for_status_to_go_idle+0x78>
  103154:	e0bfff17 	ldw	r2,-4(fp)
  103158:	10802f17 	ldw	r2,188(r2)
  10315c:	10800037 	ldwio	r2,0(r2)
  103160:	108000cc 	andi	r2,r2,3
  103164:	103fef1e 	bne	r2,zero,103124 <_gp+0xffefa95c>
  103168:	e0bffc17 	ldw	r2,-16(fp)
  10316c:	e037883a 	mov	sp,fp
  103170:	dfc00117 	ldw	ra,4(sp)
  103174:	df000017 	ldw	fp,0(sp)
  103178:	dec00204 	addi	sp,sp,8
  10317c:	f800283a 	ret

00103180 <alt_onchip_flash_poll_for_status_erase_passed>:
  103180:	defffa04 	addi	sp,sp,-24
  103184:	dfc00515 	stw	ra,20(sp)
  103188:	df000415 	stw	fp,16(sp)
  10318c:	df000404 	addi	fp,sp,16
  103190:	e13fff15 	stw	r4,-4(fp)
  103194:	e03ffc15 	stw	zero,-16(fp)
  103198:	008002f4 	movhi	r2,11
  10319c:	10ab9804 	addi	r2,r2,-20896
  1031a0:	e0bffe15 	stw	r2,-8(fp)
  1031a4:	008002f4 	movhi	r2,11
  1031a8:	10ab9804 	addi	r2,r2,-20896
  1031ac:	e0bffd15 	stw	r2,-12(fp)
  1031b0:	00000c06 	br	1031e4 <alt_onchip_flash_poll_for_status_erase_passed+0x64>
  1031b4:	01000044 	movi	r4,1
  1031b8:	01032a00 	call	1032a0 <alt_busy_sleep>
  1031bc:	e0bffe17 	ldw	r2,-8(fp)
  1031c0:	10000826 	beq	r2,zero,1031e4 <alt_onchip_flash_poll_for_status_erase_passed+0x64>
  1031c4:	e0bffd17 	ldw	r2,-12(fp)
  1031c8:	10bfffc4 	addi	r2,r2,-1
  1031cc:	e0bffd15 	stw	r2,-12(fp)
  1031d0:	e0bffd17 	ldw	r2,-12(fp)
  1031d4:	1000031e 	bne	r2,zero,1031e4 <alt_onchip_flash_poll_for_status_erase_passed+0x64>
  1031d8:	00bfe304 	movi	r2,-116
  1031dc:	e0bffc15 	stw	r2,-16(fp)
  1031e0:	00000506 	br	1031f8 <alt_onchip_flash_poll_for_status_erase_passed+0x78>
  1031e4:	e0bfff17 	ldw	r2,-4(fp)
  1031e8:	10802f17 	ldw	r2,188(r2)
  1031ec:	10800037 	ldwio	r2,0(r2)
  1031f0:	1080040c 	andi	r2,r2,16
  1031f4:	103fef26 	beq	r2,zero,1031b4 <_gp+0xffefa9ec>
  1031f8:	e0bffc17 	ldw	r2,-16(fp)
  1031fc:	e037883a 	mov	sp,fp
  103200:	dfc00117 	ldw	ra,4(sp)
  103204:	df000017 	ldw	fp,0(sp)
  103208:	dec00204 	addi	sp,sp,8
  10320c:	f800283a 	ret

00103210 <alt_onchip_flash_poll_for_status_write_passed>:
  103210:	defffa04 	addi	sp,sp,-24
  103214:	dfc00515 	stw	ra,20(sp)
  103218:	df000415 	stw	fp,16(sp)
  10321c:	df000404 	addi	fp,sp,16
  103220:	e13fff15 	stw	r4,-4(fp)
  103224:	e03ffc15 	stw	zero,-16(fp)
  103228:	008002f4 	movhi	r2,11
  10322c:	10ab9804 	addi	r2,r2,-20896
  103230:	e0bffe15 	stw	r2,-8(fp)
  103234:	008002f4 	movhi	r2,11
  103238:	10ab9804 	addi	r2,r2,-20896
  10323c:	e0bffd15 	stw	r2,-12(fp)
  103240:	00000c06 	br	103274 <alt_onchip_flash_poll_for_status_write_passed+0x64>
  103244:	01000044 	movi	r4,1
  103248:	01032a00 	call	1032a0 <alt_busy_sleep>
  10324c:	e0bffe17 	ldw	r2,-8(fp)
  103250:	10000826 	beq	r2,zero,103274 <alt_onchip_flash_poll_for_status_write_passed+0x64>
  103254:	e0bffd17 	ldw	r2,-12(fp)
  103258:	10bfffc4 	addi	r2,r2,-1
  10325c:	e0bffd15 	stw	r2,-12(fp)
  103260:	e0bffd17 	ldw	r2,-12(fp)
  103264:	1000031e 	bne	r2,zero,103274 <alt_onchip_flash_poll_for_status_write_passed+0x64>
  103268:	00bfe304 	movi	r2,-116
  10326c:	e0bffc15 	stw	r2,-16(fp)
  103270:	00000506 	br	103288 <alt_onchip_flash_poll_for_status_write_passed+0x78>
  103274:	e0bfff17 	ldw	r2,-4(fp)
  103278:	10802f17 	ldw	r2,188(r2)
  10327c:	10800037 	ldwio	r2,0(r2)
  103280:	1080020c 	andi	r2,r2,8
  103284:	103fef26 	beq	r2,zero,103244 <_gp+0xffefaa7c>
  103288:	e0bffc17 	ldw	r2,-16(fp)
  10328c:	e037883a 	mov	sp,fp
  103290:	dfc00117 	ldw	ra,4(sp)
  103294:	df000017 	ldw	fp,0(sp)
  103298:	dec00204 	addi	sp,sp,8
  10329c:	f800283a 	ret

001032a0 <alt_busy_sleep>:
  1032a0:	defffa04 	addi	sp,sp,-24
  1032a4:	dfc00515 	stw	ra,20(sp)
  1032a8:	df000415 	stw	fp,16(sp)
  1032ac:	df000404 	addi	fp,sp,16
  1032b0:	e13fff15 	stw	r4,-4(fp)
  1032b4:	00800244 	movi	r2,9
  1032b8:	e0bffd15 	stw	r2,-12(fp)
  1032bc:	e13ffd17 	ldw	r4,-12(fp)
  1032c0:	014003f4 	movhi	r5,15
  1032c4:	29509004 	addi	r5,r5,16960
  1032c8:	01014f80 	call	1014f8 <__mulsi3>
  1032cc:	01007574 	movhi	r4,469
  1032d0:	21300004 	addi	r4,r4,-16384
  1032d4:	100b883a 	mov	r5,r2
  1032d8:	01014e80 	call	1014e8 <__udivsi3>
  1032dc:	01200034 	movhi	r4,32768
  1032e0:	213fffc4 	addi	r4,r4,-1
  1032e4:	100b883a 	mov	r5,r2
  1032e8:	01014e80 	call	1014e8 <__udivsi3>
  1032ec:	e13fff17 	ldw	r4,-4(fp)
  1032f0:	100b883a 	mov	r5,r2
  1032f4:	01014e80 	call	1014e8 <__udivsi3>
  1032f8:	e0bffe15 	stw	r2,-8(fp)
  1032fc:	e0bffe17 	ldw	r2,-8(fp)
  103300:	10002a26 	beq	r2,zero,1033ac <alt_busy_sleep+0x10c>
  103304:	e03ffc15 	stw	zero,-16(fp)
  103308:	00001706 	br	103368 <alt_busy_sleep+0xc8>
  10330c:	00a00034 	movhi	r2,32768
  103310:	10bfffc4 	addi	r2,r2,-1
  103314:	10bfffc4 	addi	r2,r2,-1
  103318:	103ffe1e 	bne	r2,zero,103314 <_gp+0xffefab4c>
  10331c:	e13ffd17 	ldw	r4,-12(fp)
  103320:	014003f4 	movhi	r5,15
  103324:	29509004 	addi	r5,r5,16960
  103328:	01014f80 	call	1014f8 <__mulsi3>
  10332c:	01007574 	movhi	r4,469
  103330:	21300004 	addi	r4,r4,-16384
  103334:	100b883a 	mov	r5,r2
  103338:	01014e80 	call	1014e8 <__udivsi3>
  10333c:	01200034 	movhi	r4,32768
  103340:	213fffc4 	addi	r4,r4,-1
  103344:	100b883a 	mov	r5,r2
  103348:	01014e80 	call	1014e8 <__udivsi3>
  10334c:	1007883a 	mov	r3,r2
  103350:	e0bfff17 	ldw	r2,-4(fp)
  103354:	10c5c83a 	sub	r2,r2,r3
  103358:	e0bfff15 	stw	r2,-4(fp)
  10335c:	e0bffc17 	ldw	r2,-16(fp)
  103360:	10800044 	addi	r2,r2,1
  103364:	e0bffc15 	stw	r2,-16(fp)
  103368:	e0fffc17 	ldw	r3,-16(fp)
  10336c:	e0bffe17 	ldw	r2,-8(fp)
  103370:	18bfe616 	blt	r3,r2,10330c <_gp+0xffefab44>
  103374:	e13ffd17 	ldw	r4,-12(fp)
  103378:	014003f4 	movhi	r5,15
  10337c:	29509004 	addi	r5,r5,16960
  103380:	01014f80 	call	1014f8 <__mulsi3>
  103384:	01007574 	movhi	r4,469
  103388:	21300004 	addi	r4,r4,-16384
  10338c:	100b883a 	mov	r5,r2
  103390:	01014e80 	call	1014e8 <__udivsi3>
  103394:	1009883a 	mov	r4,r2
  103398:	e17fff17 	ldw	r5,-4(fp)
  10339c:	01014f80 	call	1014f8 <__mulsi3>
  1033a0:	10bfffc4 	addi	r2,r2,-1
  1033a4:	103ffe1e 	bne	r2,zero,1033a0 <_gp+0xffefabd8>
  1033a8:	00000d06 	br	1033e0 <alt_busy_sleep+0x140>
  1033ac:	e13ffd17 	ldw	r4,-12(fp)
  1033b0:	014003f4 	movhi	r5,15
  1033b4:	29509004 	addi	r5,r5,16960
  1033b8:	01014f80 	call	1014f8 <__mulsi3>
  1033bc:	01007574 	movhi	r4,469
  1033c0:	21300004 	addi	r4,r4,-16384
  1033c4:	100b883a 	mov	r5,r2
  1033c8:	01014e80 	call	1014e8 <__udivsi3>
  1033cc:	1009883a 	mov	r4,r2
  1033d0:	e17fff17 	ldw	r5,-4(fp)
  1033d4:	01014f80 	call	1014f8 <__mulsi3>
  1033d8:	10bfffc4 	addi	r2,r2,-1
  1033dc:	00bffe16 	blt	zero,r2,1033d8 <_gp+0xffefac10>
  1033e0:	0005883a 	mov	r2,zero
  1033e4:	e037883a 	mov	sp,fp
  1033e8:	dfc00117 	ldw	ra,4(sp)
  1033ec:	df000017 	ldw	fp,0(sp)
  1033f0:	dec00204 	addi	sp,sp,8
  1033f4:	f800283a 	ret

001033f8 <alt_get_errno>:
  1033f8:	defffe04 	addi	sp,sp,-8
  1033fc:	dfc00115 	stw	ra,4(sp)
  103400:	df000015 	stw	fp,0(sp)
  103404:	d839883a 	mov	fp,sp
  103408:	00800834 	movhi	r2,32
  10340c:	1081fd04 	addi	r2,r2,2036
  103410:	10800017 	ldw	r2,0(r2)
  103414:	10000526 	beq	r2,zero,10342c <alt_get_errno+0x34>
  103418:	00800834 	movhi	r2,32
  10341c:	1081fd04 	addi	r2,r2,2036
  103420:	10800017 	ldw	r2,0(r2)
  103424:	103ee83a 	callr	r2
  103428:	00000206 	br	103434 <alt_get_errno+0x3c>
  10342c:	00800834 	movhi	r2,32
  103430:	10821504 	addi	r2,r2,2132
  103434:	e037883a 	mov	sp,fp
  103438:	dfc00117 	ldw	ra,4(sp)
  10343c:	df000017 	ldw	fp,0(sp)
  103440:	dec00204 	addi	sp,sp,8
  103444:	f800283a 	ret

00103448 <close>:
  103448:	defffb04 	addi	sp,sp,-20
  10344c:	dfc00415 	stw	ra,16(sp)
  103450:	df000315 	stw	fp,12(sp)
  103454:	df000304 	addi	fp,sp,12
  103458:	e13fff15 	stw	r4,-4(fp)
  10345c:	e0bfff17 	ldw	r2,-4(fp)
  103460:	10000816 	blt	r2,zero,103484 <close+0x3c>
  103464:	e13fff17 	ldw	r4,-4(fp)
  103468:	01400304 	movi	r5,12
  10346c:	01014f80 	call	1014f8 <__mulsi3>
  103470:	1007883a 	mov	r3,r2
  103474:	00800834 	movhi	r2,32
  103478:	10808904 	addi	r2,r2,548
  10347c:	1885883a 	add	r2,r3,r2
  103480:	00000106 	br	103488 <close+0x40>
  103484:	0005883a 	mov	r2,zero
  103488:	e0bffd15 	stw	r2,-12(fp)
  10348c:	e0bffd17 	ldw	r2,-12(fp)
  103490:	10001926 	beq	r2,zero,1034f8 <close+0xb0>
  103494:	e0bffd17 	ldw	r2,-12(fp)
  103498:	10800017 	ldw	r2,0(r2)
  10349c:	10800417 	ldw	r2,16(r2)
  1034a0:	10000626 	beq	r2,zero,1034bc <close+0x74>
  1034a4:	e0bffd17 	ldw	r2,-12(fp)
  1034a8:	10800017 	ldw	r2,0(r2)
  1034ac:	10800417 	ldw	r2,16(r2)
  1034b0:	e13ffd17 	ldw	r4,-12(fp)
  1034b4:	103ee83a 	callr	r2
  1034b8:	00000106 	br	1034c0 <close+0x78>
  1034bc:	0005883a 	mov	r2,zero
  1034c0:	e0bffe15 	stw	r2,-8(fp)
  1034c4:	e13fff17 	ldw	r4,-4(fp)
  1034c8:	0103adc0 	call	103adc <alt_release_fd>
  1034cc:	e0bffe17 	ldw	r2,-8(fp)
  1034d0:	1000070e 	bge	r2,zero,1034f0 <close+0xa8>
  1034d4:	01033f80 	call	1033f8 <alt_get_errno>
  1034d8:	1007883a 	mov	r3,r2
  1034dc:	e0bffe17 	ldw	r2,-8(fp)
  1034e0:	0085c83a 	sub	r2,zero,r2
  1034e4:	18800015 	stw	r2,0(r3)
  1034e8:	00bfffc4 	movi	r2,-1
  1034ec:	00000706 	br	10350c <close+0xc4>
  1034f0:	0005883a 	mov	r2,zero
  1034f4:	00000506 	br	10350c <close+0xc4>
  1034f8:	01033f80 	call	1033f8 <alt_get_errno>
  1034fc:	1007883a 	mov	r3,r2
  103500:	00801444 	movi	r2,81
  103504:	18800015 	stw	r2,0(r3)
  103508:	00bfffc4 	movi	r2,-1
  10350c:	e037883a 	mov	sp,fp
  103510:	dfc00117 	ldw	ra,4(sp)
  103514:	df000017 	ldw	fp,0(sp)
  103518:	dec00204 	addi	sp,sp,8
  10351c:	f800283a 	ret

00103520 <alt_dcache_flush>:
  103520:	defffd04 	addi	sp,sp,-12
  103524:	df000215 	stw	fp,8(sp)
  103528:	df000204 	addi	fp,sp,8
  10352c:	e13ffe15 	stw	r4,-8(fp)
  103530:	e17fff15 	stw	r5,-4(fp)
  103534:	e037883a 	mov	sp,fp
  103538:	df000017 	ldw	fp,0(sp)
  10353c:	dec00104 	addi	sp,sp,4
  103540:	f800283a 	ret

00103544 <alt_dcache_flush_all>:
  103544:	deffff04 	addi	sp,sp,-4
  103548:	df000015 	stw	fp,0(sp)
  10354c:	d839883a 	mov	fp,sp
  103550:	e037883a 	mov	sp,fp
  103554:	df000017 	ldw	fp,0(sp)
  103558:	dec00104 	addi	sp,sp,4
  10355c:	f800283a 	ret

00103560 <alt_dev_null_write>:
  103560:	defffc04 	addi	sp,sp,-16
  103564:	df000315 	stw	fp,12(sp)
  103568:	df000304 	addi	fp,sp,12
  10356c:	e13ffd15 	stw	r4,-12(fp)
  103570:	e17ffe15 	stw	r5,-8(fp)
  103574:	e1bfff15 	stw	r6,-4(fp)
  103578:	e0bfff17 	ldw	r2,-4(fp)
  10357c:	e037883a 	mov	sp,fp
  103580:	df000017 	ldw	fp,0(sp)
  103584:	dec00104 	addi	sp,sp,4
  103588:	f800283a 	ret

0010358c <alt_get_errno>:
  10358c:	defffe04 	addi	sp,sp,-8
  103590:	dfc00115 	stw	ra,4(sp)
  103594:	df000015 	stw	fp,0(sp)
  103598:	d839883a 	mov	fp,sp
  10359c:	00800834 	movhi	r2,32
  1035a0:	1081fd04 	addi	r2,r2,2036
  1035a4:	10800017 	ldw	r2,0(r2)
  1035a8:	10000526 	beq	r2,zero,1035c0 <alt_get_errno+0x34>
  1035ac:	00800834 	movhi	r2,32
  1035b0:	1081fd04 	addi	r2,r2,2036
  1035b4:	10800017 	ldw	r2,0(r2)
  1035b8:	103ee83a 	callr	r2
  1035bc:	00000206 	br	1035c8 <alt_get_errno+0x3c>
  1035c0:	00800834 	movhi	r2,32
  1035c4:	10821504 	addi	r2,r2,2132
  1035c8:	e037883a 	mov	sp,fp
  1035cc:	dfc00117 	ldw	ra,4(sp)
  1035d0:	df000017 	ldw	fp,0(sp)
  1035d4:	dec00204 	addi	sp,sp,8
  1035d8:	f800283a 	ret

001035dc <alt_dev_llist_insert>:
  1035dc:	defffa04 	addi	sp,sp,-24
  1035e0:	dfc00515 	stw	ra,20(sp)
  1035e4:	df000415 	stw	fp,16(sp)
  1035e8:	df000404 	addi	fp,sp,16
  1035ec:	e13ffe15 	stw	r4,-8(fp)
  1035f0:	e17fff15 	stw	r5,-4(fp)
  1035f4:	e0bffe17 	ldw	r2,-8(fp)
  1035f8:	10000326 	beq	r2,zero,103608 <alt_dev_llist_insert+0x2c>
  1035fc:	e0bffe17 	ldw	r2,-8(fp)
  103600:	10800217 	ldw	r2,8(r2)
  103604:	1000061e 	bne	r2,zero,103620 <alt_dev_llist_insert+0x44>
  103608:	010358c0 	call	10358c <alt_get_errno>
  10360c:	1007883a 	mov	r3,r2
  103610:	00800584 	movi	r2,22
  103614:	18800015 	stw	r2,0(r3)
  103618:	00bffa84 	movi	r2,-22
  10361c:	00001306 	br	10366c <alt_dev_llist_insert+0x90>
  103620:	e0bffe17 	ldw	r2,-8(fp)
  103624:	e0ffff17 	ldw	r3,-4(fp)
  103628:	e0fffc15 	stw	r3,-16(fp)
  10362c:	e0bffd15 	stw	r2,-12(fp)
  103630:	e0bffd17 	ldw	r2,-12(fp)
  103634:	e0fffc17 	ldw	r3,-16(fp)
  103638:	10c00115 	stw	r3,4(r2)
  10363c:	e0bffc17 	ldw	r2,-16(fp)
  103640:	10c00017 	ldw	r3,0(r2)
  103644:	e0bffd17 	ldw	r2,-12(fp)
  103648:	10c00015 	stw	r3,0(r2)
  10364c:	e0bffc17 	ldw	r2,-16(fp)
  103650:	10800017 	ldw	r2,0(r2)
  103654:	e0fffd17 	ldw	r3,-12(fp)
  103658:	10c00115 	stw	r3,4(r2)
  10365c:	e0bffc17 	ldw	r2,-16(fp)
  103660:	e0fffd17 	ldw	r3,-12(fp)
  103664:	10c00015 	stw	r3,0(r2)
  103668:	0005883a 	mov	r2,zero
  10366c:	e037883a 	mov	sp,fp
  103670:	dfc00117 	ldw	ra,4(sp)
  103674:	df000017 	ldw	fp,0(sp)
  103678:	dec00204 	addi	sp,sp,8
  10367c:	f800283a 	ret

00103680 <_do_ctors>:
  103680:	defffd04 	addi	sp,sp,-12
  103684:	dfc00215 	stw	ra,8(sp)
  103688:	df000115 	stw	fp,4(sp)
  10368c:	df000104 	addi	fp,sp,4
  103690:	00800434 	movhi	r2,16
  103694:	10908604 	addi	r2,r2,16920
  103698:	e0bfff15 	stw	r2,-4(fp)
  10369c:	00000606 	br	1036b8 <_do_ctors+0x38>
  1036a0:	e0bfff17 	ldw	r2,-4(fp)
  1036a4:	10800017 	ldw	r2,0(r2)
  1036a8:	103ee83a 	callr	r2
  1036ac:	e0bfff17 	ldw	r2,-4(fp)
  1036b0:	10bfff04 	addi	r2,r2,-4
  1036b4:	e0bfff15 	stw	r2,-4(fp)
  1036b8:	e0ffff17 	ldw	r3,-4(fp)
  1036bc:	00800434 	movhi	r2,16
  1036c0:	10908704 	addi	r2,r2,16924
  1036c4:	18bff62e 	bgeu	r3,r2,1036a0 <_gp+0xffefaed8>
  1036c8:	e037883a 	mov	sp,fp
  1036cc:	dfc00117 	ldw	ra,4(sp)
  1036d0:	df000017 	ldw	fp,0(sp)
  1036d4:	dec00204 	addi	sp,sp,8
  1036d8:	f800283a 	ret

001036dc <_do_dtors>:
  1036dc:	defffd04 	addi	sp,sp,-12
  1036e0:	dfc00215 	stw	ra,8(sp)
  1036e4:	df000115 	stw	fp,4(sp)
  1036e8:	df000104 	addi	fp,sp,4
  1036ec:	00800434 	movhi	r2,16
  1036f0:	10908604 	addi	r2,r2,16920
  1036f4:	e0bfff15 	stw	r2,-4(fp)
  1036f8:	00000606 	br	103714 <_do_dtors+0x38>
  1036fc:	e0bfff17 	ldw	r2,-4(fp)
  103700:	10800017 	ldw	r2,0(r2)
  103704:	103ee83a 	callr	r2
  103708:	e0bfff17 	ldw	r2,-4(fp)
  10370c:	10bfff04 	addi	r2,r2,-4
  103710:	e0bfff15 	stw	r2,-4(fp)
  103714:	e0ffff17 	ldw	r3,-4(fp)
  103718:	00800434 	movhi	r2,16
  10371c:	10908704 	addi	r2,r2,16924
  103720:	18bff62e 	bgeu	r3,r2,1036fc <_gp+0xffefaf34>
  103724:	e037883a 	mov	sp,fp
  103728:	dfc00117 	ldw	ra,4(sp)
  10372c:	df000017 	ldw	fp,0(sp)
  103730:	dec00204 	addi	sp,sp,8
  103734:	f800283a 	ret

00103738 <alt_flash_open_dev>:
  103738:	defffc04 	addi	sp,sp,-16
  10373c:	dfc00315 	stw	ra,12(sp)
  103740:	df000215 	stw	fp,8(sp)
  103744:	df000204 	addi	fp,sp,8
  103748:	e13fff15 	stw	r4,-4(fp)
  10374c:	e13fff17 	ldw	r4,-4(fp)
  103750:	d1600c04 	addi	r5,gp,-32720
  103754:	0103b7c0 	call	103b7c <alt_find_dev>
  103758:	e0bffe15 	stw	r2,-8(fp)
  10375c:	e0bffe17 	ldw	r2,-8(fp)
  103760:	10000926 	beq	r2,zero,103788 <alt_flash_open_dev+0x50>
  103764:	e0bffe17 	ldw	r2,-8(fp)
  103768:	10800317 	ldw	r2,12(r2)
  10376c:	10000626 	beq	r2,zero,103788 <alt_flash_open_dev+0x50>
  103770:	e0bffe17 	ldw	r2,-8(fp)
  103774:	10800317 	ldw	r2,12(r2)
  103778:	e13ffe17 	ldw	r4,-8(fp)
  10377c:	e17fff17 	ldw	r5,-4(fp)
  103780:	103ee83a 	callr	r2
  103784:	00000106 	br	10378c <alt_flash_open_dev+0x54>
  103788:	e0bffe17 	ldw	r2,-8(fp)
  10378c:	e037883a 	mov	sp,fp
  103790:	dfc00117 	ldw	ra,4(sp)
  103794:	df000017 	ldw	fp,0(sp)
  103798:	dec00204 	addi	sp,sp,8
  10379c:	f800283a 	ret

001037a0 <alt_flash_close_dev>:
  1037a0:	defffd04 	addi	sp,sp,-12
  1037a4:	dfc00215 	stw	ra,8(sp)
  1037a8:	df000115 	stw	fp,4(sp)
  1037ac:	df000104 	addi	fp,sp,4
  1037b0:	e13fff15 	stw	r4,-4(fp)
  1037b4:	e0bfff17 	ldw	r2,-4(fp)
  1037b8:	10000726 	beq	r2,zero,1037d8 <alt_flash_close_dev+0x38>
  1037bc:	e0bfff17 	ldw	r2,-4(fp)
  1037c0:	10800417 	ldw	r2,16(r2)
  1037c4:	10000426 	beq	r2,zero,1037d8 <alt_flash_close_dev+0x38>
  1037c8:	e0bfff17 	ldw	r2,-4(fp)
  1037cc:	10800417 	ldw	r2,16(r2)
  1037d0:	e13fff17 	ldw	r4,-4(fp)
  1037d4:	103ee83a 	callr	r2
  1037d8:	0001883a 	nop
  1037dc:	e037883a 	mov	sp,fp
  1037e0:	dfc00117 	ldw	ra,4(sp)
  1037e4:	df000017 	ldw	fp,0(sp)
  1037e8:	dec00204 	addi	sp,sp,8
  1037ec:	f800283a 	ret

001037f0 <alt_icache_flush_all>:
  1037f0:	deffff04 	addi	sp,sp,-4
  1037f4:	df000015 	stw	fp,0(sp)
  1037f8:	d839883a 	mov	fp,sp
  1037fc:	e037883a 	mov	sp,fp
  103800:	df000017 	ldw	fp,0(sp)
  103804:	dec00104 	addi	sp,sp,4
  103808:	f800283a 	ret

0010380c <alt_ic_isr_register>:
  10380c:	defff904 	addi	sp,sp,-28
  103810:	dfc00615 	stw	ra,24(sp)
  103814:	df000515 	stw	fp,20(sp)
  103818:	df000504 	addi	fp,sp,20
  10381c:	e13ffc15 	stw	r4,-16(fp)
  103820:	e17ffd15 	stw	r5,-12(fp)
  103824:	e1bffe15 	stw	r6,-8(fp)
  103828:	e1ffff15 	stw	r7,-4(fp)
  10382c:	e0800217 	ldw	r2,8(fp)
  103830:	d8800015 	stw	r2,0(sp)
  103834:	e13ffc17 	ldw	r4,-16(fp)
  103838:	e17ffd17 	ldw	r5,-12(fp)
  10383c:	e1bffe17 	ldw	r6,-8(fp)
  103840:	e1ffff17 	ldw	r7,-4(fp)
  103844:	01039ec0 	call	1039ec <alt_iic_isr_register>
  103848:	e037883a 	mov	sp,fp
  10384c:	dfc00117 	ldw	ra,4(sp)
  103850:	df000017 	ldw	fp,0(sp)
  103854:	dec00204 	addi	sp,sp,8
  103858:	f800283a 	ret

0010385c <alt_ic_irq_enable>:
  10385c:	defff904 	addi	sp,sp,-28
  103860:	df000615 	stw	fp,24(sp)
  103864:	df000604 	addi	fp,sp,24
  103868:	e13ffe15 	stw	r4,-8(fp)
  10386c:	e17fff15 	stw	r5,-4(fp)
  103870:	e0bfff17 	ldw	r2,-4(fp)
  103874:	e0bffa15 	stw	r2,-24(fp)
  103878:	0005303a 	rdctl	r2,status
  10387c:	e0bffb15 	stw	r2,-20(fp)
  103880:	e0fffb17 	ldw	r3,-20(fp)
  103884:	00bfff84 	movi	r2,-2
  103888:	1884703a 	and	r2,r3,r2
  10388c:	1001703a 	wrctl	status,r2
  103890:	e0bffb17 	ldw	r2,-20(fp)
  103894:	e0bffc15 	stw	r2,-16(fp)
  103898:	e0bffa17 	ldw	r2,-24(fp)
  10389c:	00c00044 	movi	r3,1
  1038a0:	1884983a 	sll	r2,r3,r2
  1038a4:	1007883a 	mov	r3,r2
  1038a8:	00800834 	movhi	r2,32
  1038ac:	10821304 	addi	r2,r2,2124
  1038b0:	10800017 	ldw	r2,0(r2)
  1038b4:	1886b03a 	or	r3,r3,r2
  1038b8:	00800834 	movhi	r2,32
  1038bc:	10821304 	addi	r2,r2,2124
  1038c0:	10c00015 	stw	r3,0(r2)
  1038c4:	00800834 	movhi	r2,32
  1038c8:	10821304 	addi	r2,r2,2124
  1038cc:	10800017 	ldw	r2,0(r2)
  1038d0:	100170fa 	wrctl	ienable,r2
  1038d4:	e0bffc17 	ldw	r2,-16(fp)
  1038d8:	e0bffd15 	stw	r2,-12(fp)
  1038dc:	e0bffd17 	ldw	r2,-12(fp)
  1038e0:	1001703a 	wrctl	status,r2
  1038e4:	0005883a 	mov	r2,zero
  1038e8:	0001883a 	nop
  1038ec:	e037883a 	mov	sp,fp
  1038f0:	df000017 	ldw	fp,0(sp)
  1038f4:	dec00104 	addi	sp,sp,4
  1038f8:	f800283a 	ret

001038fc <alt_ic_irq_disable>:
  1038fc:	defff904 	addi	sp,sp,-28
  103900:	df000615 	stw	fp,24(sp)
  103904:	df000604 	addi	fp,sp,24
  103908:	e13ffe15 	stw	r4,-8(fp)
  10390c:	e17fff15 	stw	r5,-4(fp)
  103910:	e0bfff17 	ldw	r2,-4(fp)
  103914:	e0bffa15 	stw	r2,-24(fp)
  103918:	0005303a 	rdctl	r2,status
  10391c:	e0bffb15 	stw	r2,-20(fp)
  103920:	e0fffb17 	ldw	r3,-20(fp)
  103924:	00bfff84 	movi	r2,-2
  103928:	1884703a 	and	r2,r3,r2
  10392c:	1001703a 	wrctl	status,r2
  103930:	e0bffb17 	ldw	r2,-20(fp)
  103934:	e0bffc15 	stw	r2,-16(fp)
  103938:	e0bffa17 	ldw	r2,-24(fp)
  10393c:	00c00044 	movi	r3,1
  103940:	1884983a 	sll	r2,r3,r2
  103944:	0084303a 	nor	r2,zero,r2
  103948:	1007883a 	mov	r3,r2
  10394c:	00800834 	movhi	r2,32
  103950:	10821304 	addi	r2,r2,2124
  103954:	10800017 	ldw	r2,0(r2)
  103958:	1886703a 	and	r3,r3,r2
  10395c:	00800834 	movhi	r2,32
  103960:	10821304 	addi	r2,r2,2124
  103964:	10c00015 	stw	r3,0(r2)
  103968:	00800834 	movhi	r2,32
  10396c:	10821304 	addi	r2,r2,2124
  103970:	10800017 	ldw	r2,0(r2)
  103974:	100170fa 	wrctl	ienable,r2
  103978:	e0bffc17 	ldw	r2,-16(fp)
  10397c:	e0bffd15 	stw	r2,-12(fp)
  103980:	e0bffd17 	ldw	r2,-12(fp)
  103984:	1001703a 	wrctl	status,r2
  103988:	0005883a 	mov	r2,zero
  10398c:	0001883a 	nop
  103990:	e037883a 	mov	sp,fp
  103994:	df000017 	ldw	fp,0(sp)
  103998:	dec00104 	addi	sp,sp,4
  10399c:	f800283a 	ret

001039a0 <alt_ic_irq_enabled>:
  1039a0:	defffc04 	addi	sp,sp,-16
  1039a4:	df000315 	stw	fp,12(sp)
  1039a8:	df000304 	addi	fp,sp,12
  1039ac:	e13ffe15 	stw	r4,-8(fp)
  1039b0:	e17fff15 	stw	r5,-4(fp)
  1039b4:	000530fa 	rdctl	r2,ienable
  1039b8:	e0bffd15 	stw	r2,-12(fp)
  1039bc:	e0bfff17 	ldw	r2,-4(fp)
  1039c0:	00c00044 	movi	r3,1
  1039c4:	1884983a 	sll	r2,r3,r2
  1039c8:	1007883a 	mov	r3,r2
  1039cc:	e0bffd17 	ldw	r2,-12(fp)
  1039d0:	1884703a 	and	r2,r3,r2
  1039d4:	1004c03a 	cmpne	r2,r2,zero
  1039d8:	10803fcc 	andi	r2,r2,255
  1039dc:	e037883a 	mov	sp,fp
  1039e0:	df000017 	ldw	fp,0(sp)
  1039e4:	dec00104 	addi	sp,sp,4
  1039e8:	f800283a 	ret

001039ec <alt_iic_isr_register>:
  1039ec:	defff504 	addi	sp,sp,-44
  1039f0:	dfc00a15 	stw	ra,40(sp)
  1039f4:	df000915 	stw	fp,36(sp)
  1039f8:	df000904 	addi	fp,sp,36
  1039fc:	e13ffc15 	stw	r4,-16(fp)
  103a00:	e17ffd15 	stw	r5,-12(fp)
  103a04:	e1bffe15 	stw	r6,-8(fp)
  103a08:	e1ffff15 	stw	r7,-4(fp)
  103a0c:	00bffa84 	movi	r2,-22
  103a10:	e0bff715 	stw	r2,-36(fp)
  103a14:	e0bffd17 	ldw	r2,-12(fp)
  103a18:	e0bff815 	stw	r2,-32(fp)
  103a1c:	e0bff817 	ldw	r2,-32(fp)
  103a20:	10800808 	cmpgei	r2,r2,32
  103a24:	1000271e 	bne	r2,zero,103ac4 <alt_iic_isr_register+0xd8>
  103a28:	0005303a 	rdctl	r2,status
  103a2c:	e0bffa15 	stw	r2,-24(fp)
  103a30:	e0fffa17 	ldw	r3,-24(fp)
  103a34:	00bfff84 	movi	r2,-2
  103a38:	1884703a 	and	r2,r3,r2
  103a3c:	1001703a 	wrctl	status,r2
  103a40:	e0bffa17 	ldw	r2,-24(fp)
  103a44:	e0bff915 	stw	r2,-28(fp)
  103a48:	00800834 	movhi	r2,32
  103a4c:	10827604 	addi	r2,r2,2520
  103a50:	e0fff817 	ldw	r3,-32(fp)
  103a54:	180690fa 	slli	r3,r3,3
  103a58:	10c5883a 	add	r2,r2,r3
  103a5c:	e0fffe17 	ldw	r3,-8(fp)
  103a60:	10c00015 	stw	r3,0(r2)
  103a64:	00800834 	movhi	r2,32
  103a68:	10827604 	addi	r2,r2,2520
  103a6c:	e0fff817 	ldw	r3,-32(fp)
  103a70:	180690fa 	slli	r3,r3,3
  103a74:	18c00104 	addi	r3,r3,4
  103a78:	10c5883a 	add	r2,r2,r3
  103a7c:	e0ffff17 	ldw	r3,-4(fp)
  103a80:	10c00015 	stw	r3,0(r2)
  103a84:	e0bffe17 	ldw	r2,-8(fp)
  103a88:	10000526 	beq	r2,zero,103aa0 <alt_iic_isr_register+0xb4>
  103a8c:	e0bff817 	ldw	r2,-32(fp)
  103a90:	e13ffc17 	ldw	r4,-16(fp)
  103a94:	100b883a 	mov	r5,r2
  103a98:	010385c0 	call	10385c <alt_ic_irq_enable>
  103a9c:	00000406 	br	103ab0 <alt_iic_isr_register+0xc4>
  103aa0:	e0bff817 	ldw	r2,-32(fp)
  103aa4:	e13ffc17 	ldw	r4,-16(fp)
  103aa8:	100b883a 	mov	r5,r2
  103aac:	01038fc0 	call	1038fc <alt_ic_irq_disable>
  103ab0:	e0bff715 	stw	r2,-36(fp)
  103ab4:	e0bff917 	ldw	r2,-28(fp)
  103ab8:	e0bffb15 	stw	r2,-20(fp)
  103abc:	e0bffb17 	ldw	r2,-20(fp)
  103ac0:	1001703a 	wrctl	status,r2
  103ac4:	e0bff717 	ldw	r2,-36(fp)
  103ac8:	e037883a 	mov	sp,fp
  103acc:	dfc00117 	ldw	ra,4(sp)
  103ad0:	df000017 	ldw	fp,0(sp)
  103ad4:	dec00204 	addi	sp,sp,8
  103ad8:	f800283a 	ret

00103adc <alt_release_fd>:
  103adc:	defffc04 	addi	sp,sp,-16
  103ae0:	dfc00315 	stw	ra,12(sp)
  103ae4:	df000215 	stw	fp,8(sp)
  103ae8:	dc000115 	stw	r16,4(sp)
  103aec:	df000204 	addi	fp,sp,8
  103af0:	e13ffe15 	stw	r4,-8(fp)
  103af4:	e0bffe17 	ldw	r2,-8(fp)
  103af8:	108000d0 	cmplti	r2,r2,3
  103afc:	1000111e 	bne	r2,zero,103b44 <alt_release_fd+0x68>
  103b00:	04000834 	movhi	r16,32
  103b04:	84008904 	addi	r16,r16,548
  103b08:	e0bffe17 	ldw	r2,-8(fp)
  103b0c:	1009883a 	mov	r4,r2
  103b10:	01400304 	movi	r5,12
  103b14:	01014f80 	call	1014f8 <__mulsi3>
  103b18:	10800204 	addi	r2,r2,8
  103b1c:	8085883a 	add	r2,r16,r2
  103b20:	10000015 	stw	zero,0(r2)
  103b24:	04000834 	movhi	r16,32
  103b28:	84008904 	addi	r16,r16,548
  103b2c:	e0bffe17 	ldw	r2,-8(fp)
  103b30:	1009883a 	mov	r4,r2
  103b34:	01400304 	movi	r5,12
  103b38:	01014f80 	call	1014f8 <__mulsi3>
  103b3c:	8085883a 	add	r2,r16,r2
  103b40:	10000015 	stw	zero,0(r2)
  103b44:	e6ffff04 	addi	sp,fp,-4
  103b48:	dfc00217 	ldw	ra,8(sp)
  103b4c:	df000117 	ldw	fp,4(sp)
  103b50:	dc000017 	ldw	r16,0(sp)
  103b54:	dec00304 	addi	sp,sp,12
  103b58:	f800283a 	ret

00103b5c <altera_nios2_gen2_irq_init>:
  103b5c:	deffff04 	addi	sp,sp,-4
  103b60:	df000015 	stw	fp,0(sp)
  103b64:	d839883a 	mov	fp,sp
  103b68:	000170fa 	wrctl	ienable,zero
  103b6c:	e037883a 	mov	sp,fp
  103b70:	df000017 	ldw	fp,0(sp)
  103b74:	dec00104 	addi	sp,sp,4
  103b78:	f800283a 	ret

00103b7c <alt_find_dev>:
  103b7c:	defffa04 	addi	sp,sp,-24
  103b80:	dfc00515 	stw	ra,20(sp)
  103b84:	df000415 	stw	fp,16(sp)
  103b88:	df000404 	addi	fp,sp,16
  103b8c:	e13ffe15 	stw	r4,-8(fp)
  103b90:	e17fff15 	stw	r5,-4(fp)
  103b94:	e0bfff17 	ldw	r2,-4(fp)
  103b98:	10800017 	ldw	r2,0(r2)
  103b9c:	e0bffc15 	stw	r2,-16(fp)
  103ba0:	e13ffe17 	ldw	r4,-8(fp)
  103ba4:	0103ea80 	call	103ea8 <strlen>
  103ba8:	10800044 	addi	r2,r2,1
  103bac:	e0bffd15 	stw	r2,-12(fp)
  103bb0:	00000d06 	br	103be8 <alt_find_dev+0x6c>
  103bb4:	e0bffc17 	ldw	r2,-16(fp)
  103bb8:	10c00217 	ldw	r3,8(r2)
  103bbc:	e0bffd17 	ldw	r2,-12(fp)
  103bc0:	1809883a 	mov	r4,r3
  103bc4:	e17ffe17 	ldw	r5,-8(fp)
  103bc8:	100d883a 	mov	r6,r2
  103bcc:	0103cf40 	call	103cf4 <memcmp>
  103bd0:	1000021e 	bne	r2,zero,103bdc <alt_find_dev+0x60>
  103bd4:	e0bffc17 	ldw	r2,-16(fp)
  103bd8:	00000706 	br	103bf8 <alt_find_dev+0x7c>
  103bdc:	e0bffc17 	ldw	r2,-16(fp)
  103be0:	10800017 	ldw	r2,0(r2)
  103be4:	e0bffc15 	stw	r2,-16(fp)
  103be8:	e0fffc17 	ldw	r3,-16(fp)
  103bec:	e0bfff17 	ldw	r2,-4(fp)
  103bf0:	18bff01e 	bne	r3,r2,103bb4 <_gp+0xffefb3ec>
  103bf4:	0005883a 	mov	r2,zero
  103bf8:	e037883a 	mov	sp,fp
  103bfc:	dfc00117 	ldw	ra,4(sp)
  103c00:	df000017 	ldw	fp,0(sp)
  103c04:	dec00204 	addi	sp,sp,8
  103c08:	f800283a 	ret

00103c0c <alt_exception_cause_generated_bad_addr>:
  103c0c:	defffe04 	addi	sp,sp,-8
  103c10:	df000115 	stw	fp,4(sp)
  103c14:	df000104 	addi	fp,sp,4
  103c18:	e13fff15 	stw	r4,-4(fp)
  103c1c:	e0bfff17 	ldw	r2,-4(fp)
  103c20:	10bffe84 	addi	r2,r2,-6
  103c24:	10c00428 	cmpgeui	r3,r2,16
  103c28:	18001a1e 	bne	r3,zero,103c94 <alt_exception_cause_generated_bad_addr+0x88>
  103c2c:	100690ba 	slli	r3,r2,2
  103c30:	00800434 	movhi	r2,16
  103c34:	108f1104 	addi	r2,r2,15428
  103c38:	1885883a 	add	r2,r3,r2
  103c3c:	10800017 	ldw	r2,0(r2)
  103c40:	1000683a 	jmp	r2
  103c44:	00103c84 	movi	zero,16626
  103c48:	00103c84 	movi	zero,16626
  103c4c:	00103c94 	movui	zero,16626
  103c50:	00103c94 	movui	zero,16626
  103c54:	00103c94 	movui	zero,16626
  103c58:	00103c84 	movi	zero,16626
  103c5c:	00103c8c 	andi	zero,zero,16626
  103c60:	00103c94 	movui	zero,16626
  103c64:	00103c84 	movi	zero,16626
  103c68:	00103c84 	movi	zero,16626
  103c6c:	00103c94 	movui	zero,16626
  103c70:	00103c84 	movi	zero,16626
  103c74:	00103c8c 	andi	zero,zero,16626
  103c78:	00103c94 	movui	zero,16626
  103c7c:	00103c94 	movui	zero,16626
  103c80:	00103c84 	movi	zero,16626
  103c84:	00800044 	movi	r2,1
  103c88:	00000306 	br	103c98 <alt_exception_cause_generated_bad_addr+0x8c>
  103c8c:	0005883a 	mov	r2,zero
  103c90:	00000106 	br	103c98 <alt_exception_cause_generated_bad_addr+0x8c>
  103c94:	0005883a 	mov	r2,zero
  103c98:	e037883a 	mov	sp,fp
  103c9c:	df000017 	ldw	fp,0(sp)
  103ca0:	dec00104 	addi	sp,sp,4
  103ca4:	f800283a 	ret

00103ca8 <atexit>:
  103ca8:	200b883a 	mov	r5,r4
  103cac:	000d883a 	mov	r6,zero
  103cb0:	0009883a 	mov	r4,zero
  103cb4:	000f883a 	mov	r7,zero
  103cb8:	0103f401 	jmpi	103f40 <__register_exitproc>

00103cbc <exit>:
  103cbc:	defffe04 	addi	sp,sp,-8
  103cc0:	000b883a 	mov	r5,zero
  103cc4:	dc000015 	stw	r16,0(sp)
  103cc8:	dfc00115 	stw	ra,4(sp)
  103ccc:	2021883a 	mov	r16,r4
  103cd0:	01040540 	call	104054 <__call_exitprocs>
  103cd4:	00800834 	movhi	r2,32
  103cd8:	10820104 	addi	r2,r2,2052
  103cdc:	11000017 	ldw	r4,0(r2)
  103ce0:	20800f17 	ldw	r2,60(r4)
  103ce4:	10000126 	beq	r2,zero,103cec <exit+0x30>
  103ce8:	103ee83a 	callr	r2
  103cec:	8009883a 	mov	r4,r16
  103cf0:	01041e80 	call	1041e8 <_exit>

00103cf4 <memcmp>:
  103cf4:	01c000c4 	movi	r7,3
  103cf8:	3980192e 	bgeu	r7,r6,103d60 <memcmp+0x6c>
  103cfc:	2144b03a 	or	r2,r4,r5
  103d00:	11c4703a 	and	r2,r2,r7
  103d04:	10000f26 	beq	r2,zero,103d44 <memcmp+0x50>
  103d08:	20800003 	ldbu	r2,0(r4)
  103d0c:	28c00003 	ldbu	r3,0(r5)
  103d10:	10c0151e 	bne	r2,r3,103d68 <memcmp+0x74>
  103d14:	31bfff84 	addi	r6,r6,-2
  103d18:	01ffffc4 	movi	r7,-1
  103d1c:	00000406 	br	103d30 <memcmp+0x3c>
  103d20:	20800003 	ldbu	r2,0(r4)
  103d24:	28c00003 	ldbu	r3,0(r5)
  103d28:	31bfffc4 	addi	r6,r6,-1
  103d2c:	10c00e1e 	bne	r2,r3,103d68 <memcmp+0x74>
  103d30:	21000044 	addi	r4,r4,1
  103d34:	29400044 	addi	r5,r5,1
  103d38:	31fff91e 	bne	r6,r7,103d20 <_gp+0xffefb558>
  103d3c:	0005883a 	mov	r2,zero
  103d40:	f800283a 	ret
  103d44:	20c00017 	ldw	r3,0(r4)
  103d48:	28800017 	ldw	r2,0(r5)
  103d4c:	1880041e 	bne	r3,r2,103d60 <memcmp+0x6c>
  103d50:	31bfff04 	addi	r6,r6,-4
  103d54:	21000104 	addi	r4,r4,4
  103d58:	29400104 	addi	r5,r5,4
  103d5c:	39bff936 	bltu	r7,r6,103d44 <_gp+0xffefb57c>
  103d60:	303fe91e 	bne	r6,zero,103d08 <_gp+0xffefb540>
  103d64:	003ff506 	br	103d3c <_gp+0xffefb574>
  103d68:	10c5c83a 	sub	r2,r2,r3
  103d6c:	f800283a 	ret

00103d70 <memcpy>:
  103d70:	deffff04 	addi	sp,sp,-4
  103d74:	dc000015 	stw	r16,0(sp)
  103d78:	00c003c4 	movi	r3,15
  103d7c:	2005883a 	mov	r2,r4
  103d80:	1980432e 	bgeu	r3,r6,103e90 <memcpy+0x120>
  103d84:	2146b03a 	or	r3,r4,r5
  103d88:	18c000cc 	andi	r3,r3,3
  103d8c:	1800421e 	bne	r3,zero,103e98 <memcpy+0x128>
  103d90:	343ffc04 	addi	r16,r6,-16
  103d94:	8020d13a 	srli	r16,r16,4
  103d98:	28c00104 	addi	r3,r5,4
  103d9c:	23400104 	addi	r13,r4,4
  103da0:	801e913a 	slli	r15,r16,4
  103da4:	2b000204 	addi	r12,r5,8
  103da8:	22c00204 	addi	r11,r4,8
  103dac:	7bc00504 	addi	r15,r15,20
  103db0:	2a800304 	addi	r10,r5,12
  103db4:	22400304 	addi	r9,r4,12
  103db8:	2bdf883a 	add	r15,r5,r15
  103dbc:	2811883a 	mov	r8,r5
  103dc0:	200f883a 	mov	r7,r4
  103dc4:	41000017 	ldw	r4,0(r8)
  103dc8:	39c00404 	addi	r7,r7,16
  103dcc:	18c00404 	addi	r3,r3,16
  103dd0:	393ffc15 	stw	r4,-16(r7)
  103dd4:	1bbffc17 	ldw	r14,-16(r3)
  103dd8:	6b400404 	addi	r13,r13,16
  103ddc:	5ac00404 	addi	r11,r11,16
  103de0:	6bbffc15 	stw	r14,-16(r13)
  103de4:	63800017 	ldw	r14,0(r12)
  103de8:	4a400404 	addi	r9,r9,16
  103dec:	42000404 	addi	r8,r8,16
  103df0:	5bbffc15 	stw	r14,-16(r11)
  103df4:	53800017 	ldw	r14,0(r10)
  103df8:	63000404 	addi	r12,r12,16
  103dfc:	52800404 	addi	r10,r10,16
  103e00:	4bbffc15 	stw	r14,-16(r9)
  103e04:	1bffef1e 	bne	r3,r15,103dc4 <_gp+0xffefb5fc>
  103e08:	81c00044 	addi	r7,r16,1
  103e0c:	380e913a 	slli	r7,r7,4
  103e10:	310003cc 	andi	r4,r6,15
  103e14:	02c000c4 	movi	r11,3
  103e18:	11c7883a 	add	r3,r2,r7
  103e1c:	29cb883a 	add	r5,r5,r7
  103e20:	59001f2e 	bgeu	r11,r4,103ea0 <memcpy+0x130>
  103e24:	1813883a 	mov	r9,r3
  103e28:	2811883a 	mov	r8,r5
  103e2c:	200f883a 	mov	r7,r4
  103e30:	42800017 	ldw	r10,0(r8)
  103e34:	4a400104 	addi	r9,r9,4
  103e38:	39ffff04 	addi	r7,r7,-4
  103e3c:	4abfff15 	stw	r10,-4(r9)
  103e40:	42000104 	addi	r8,r8,4
  103e44:	59fffa36 	bltu	r11,r7,103e30 <_gp+0xffefb668>
  103e48:	213fff04 	addi	r4,r4,-4
  103e4c:	2008d0ba 	srli	r4,r4,2
  103e50:	318000cc 	andi	r6,r6,3
  103e54:	21000044 	addi	r4,r4,1
  103e58:	2109883a 	add	r4,r4,r4
  103e5c:	2109883a 	add	r4,r4,r4
  103e60:	1907883a 	add	r3,r3,r4
  103e64:	290b883a 	add	r5,r5,r4
  103e68:	30000626 	beq	r6,zero,103e84 <memcpy+0x114>
  103e6c:	198d883a 	add	r6,r3,r6
  103e70:	29c00003 	ldbu	r7,0(r5)
  103e74:	18c00044 	addi	r3,r3,1
  103e78:	29400044 	addi	r5,r5,1
  103e7c:	19ffffc5 	stb	r7,-1(r3)
  103e80:	19bffb1e 	bne	r3,r6,103e70 <_gp+0xffefb6a8>
  103e84:	dc000017 	ldw	r16,0(sp)
  103e88:	dec00104 	addi	sp,sp,4
  103e8c:	f800283a 	ret
  103e90:	2007883a 	mov	r3,r4
  103e94:	003ff406 	br	103e68 <_gp+0xffefb6a0>
  103e98:	2007883a 	mov	r3,r4
  103e9c:	003ff306 	br	103e6c <_gp+0xffefb6a4>
  103ea0:	200d883a 	mov	r6,r4
  103ea4:	003ff006 	br	103e68 <_gp+0xffefb6a0>

00103ea8 <strlen>:
  103ea8:	208000cc 	andi	r2,r4,3
  103eac:	10002026 	beq	r2,zero,103f30 <strlen+0x88>
  103eb0:	20800007 	ldb	r2,0(r4)
  103eb4:	10002026 	beq	r2,zero,103f38 <strlen+0x90>
  103eb8:	2005883a 	mov	r2,r4
  103ebc:	00000206 	br	103ec8 <strlen+0x20>
  103ec0:	10c00007 	ldb	r3,0(r2)
  103ec4:	18001826 	beq	r3,zero,103f28 <strlen+0x80>
  103ec8:	10800044 	addi	r2,r2,1
  103ecc:	10c000cc 	andi	r3,r2,3
  103ed0:	183ffb1e 	bne	r3,zero,103ec0 <_gp+0xffefb6f8>
  103ed4:	10c00017 	ldw	r3,0(r2)
  103ed8:	01ffbff4 	movhi	r7,65279
  103edc:	39ffbfc4 	addi	r7,r7,-257
  103ee0:	00ca303a 	nor	r5,zero,r3
  103ee4:	01a02074 	movhi	r6,32897
  103ee8:	19c7883a 	add	r3,r3,r7
  103eec:	31a02004 	addi	r6,r6,-32640
  103ef0:	1946703a 	and	r3,r3,r5
  103ef4:	1986703a 	and	r3,r3,r6
  103ef8:	1800091e 	bne	r3,zero,103f20 <strlen+0x78>
  103efc:	10800104 	addi	r2,r2,4
  103f00:	10c00017 	ldw	r3,0(r2)
  103f04:	19cb883a 	add	r5,r3,r7
  103f08:	00c6303a 	nor	r3,zero,r3
  103f0c:	28c6703a 	and	r3,r5,r3
  103f10:	1986703a 	and	r3,r3,r6
  103f14:	183ff926 	beq	r3,zero,103efc <_gp+0xffefb734>
  103f18:	00000106 	br	103f20 <strlen+0x78>
  103f1c:	10800044 	addi	r2,r2,1
  103f20:	10c00007 	ldb	r3,0(r2)
  103f24:	183ffd1e 	bne	r3,zero,103f1c <_gp+0xffefb754>
  103f28:	1105c83a 	sub	r2,r2,r4
  103f2c:	f800283a 	ret
  103f30:	2005883a 	mov	r2,r4
  103f34:	003fe706 	br	103ed4 <_gp+0xffefb70c>
  103f38:	0005883a 	mov	r2,zero
  103f3c:	f800283a 	ret

00103f40 <__register_exitproc>:
  103f40:	00800834 	movhi	r2,32
  103f44:	defffa04 	addi	sp,sp,-24
  103f48:	10820104 	addi	r2,r2,2052
  103f4c:	dc000315 	stw	r16,12(sp)
  103f50:	14000017 	ldw	r16,0(r2)
  103f54:	dc400415 	stw	r17,16(sp)
  103f58:	dfc00515 	stw	ra,20(sp)
  103f5c:	80805217 	ldw	r2,328(r16)
  103f60:	2023883a 	mov	r17,r4
  103f64:	10003626 	beq	r2,zero,104040 <__register_exitproc+0x100>
  103f68:	10c00117 	ldw	r3,4(r2)
  103f6c:	010007c4 	movi	r4,31
  103f70:	20c00e16 	blt	r4,r3,103fac <__register_exitproc+0x6c>
  103f74:	1a400044 	addi	r9,r3,1
  103f78:	8800211e 	bne	r17,zero,104000 <__register_exitproc+0xc0>
  103f7c:	18c00084 	addi	r3,r3,2
  103f80:	18c7883a 	add	r3,r3,r3
  103f84:	18c7883a 	add	r3,r3,r3
  103f88:	12400115 	stw	r9,4(r2)
  103f8c:	10c7883a 	add	r3,r2,r3
  103f90:	19400015 	stw	r5,0(r3)
  103f94:	0005883a 	mov	r2,zero
  103f98:	dfc00517 	ldw	ra,20(sp)
  103f9c:	dc400417 	ldw	r17,16(sp)
  103fa0:	dc000317 	ldw	r16,12(sp)
  103fa4:	dec00604 	addi	sp,sp,24
  103fa8:	f800283a 	ret
  103fac:	00800034 	movhi	r2,0
  103fb0:	10800004 	addi	r2,r2,0
  103fb4:	10002526 	beq	r2,zero,10404c <__register_exitproc+0x10c>
  103fb8:	01006404 	movi	r4,400
  103fbc:	d9400015 	stw	r5,0(sp)
  103fc0:	d9800115 	stw	r6,4(sp)
  103fc4:	d9c00215 	stw	r7,8(sp)
  103fc8:	00000000 	call	0 <__reset-0x100000>
  103fcc:	d9400017 	ldw	r5,0(sp)
  103fd0:	d9800117 	ldw	r6,4(sp)
  103fd4:	d9c00217 	ldw	r7,8(sp)
  103fd8:	10001c26 	beq	r2,zero,10404c <__register_exitproc+0x10c>
  103fdc:	80c05217 	ldw	r3,328(r16)
  103fe0:	10000115 	stw	zero,4(r2)
  103fe4:	02400044 	movi	r9,1
  103fe8:	10c00015 	stw	r3,0(r2)
  103fec:	80805215 	stw	r2,328(r16)
  103ff0:	10006215 	stw	zero,392(r2)
  103ff4:	10006315 	stw	zero,396(r2)
  103ff8:	0007883a 	mov	r3,zero
  103ffc:	883fdf26 	beq	r17,zero,103f7c <_gp+0xffefb7b4>
  104000:	18d1883a 	add	r8,r3,r3
  104004:	4211883a 	add	r8,r8,r8
  104008:	1211883a 	add	r8,r2,r8
  10400c:	41802215 	stw	r6,136(r8)
  104010:	01000044 	movi	r4,1
  104014:	11806217 	ldw	r6,392(r2)
  104018:	20c8983a 	sll	r4,r4,r3
  10401c:	310cb03a 	or	r6,r6,r4
  104020:	11806215 	stw	r6,392(r2)
  104024:	41c04215 	stw	r7,264(r8)
  104028:	01800084 	movi	r6,2
  10402c:	89bfd31e 	bne	r17,r6,103f7c <_gp+0xffefb7b4>
  104030:	11806317 	ldw	r6,396(r2)
  104034:	3108b03a 	or	r4,r6,r4
  104038:	11006315 	stw	r4,396(r2)
  10403c:	003fcf06 	br	103f7c <_gp+0xffefb7b4>
  104040:	80805304 	addi	r2,r16,332
  104044:	80805215 	stw	r2,328(r16)
  104048:	003fc706 	br	103f68 <_gp+0xffefb7a0>
  10404c:	00bfffc4 	movi	r2,-1
  104050:	003fd106 	br	103f98 <_gp+0xffefb7d0>

00104054 <__call_exitprocs>:
  104054:	00800834 	movhi	r2,32
  104058:	10820104 	addi	r2,r2,2052
  10405c:	10800017 	ldw	r2,0(r2)
  104060:	defff404 	addi	sp,sp,-48
  104064:	dd800815 	stw	r22,32(sp)
  104068:	d8800015 	stw	r2,0(sp)
  10406c:	10805204 	addi	r2,r2,328
  104070:	dd000615 	stw	r20,24(sp)
  104074:	dc800415 	stw	r18,16(sp)
  104078:	dfc00b15 	stw	ra,44(sp)
  10407c:	df000a15 	stw	fp,40(sp)
  104080:	ddc00915 	stw	r23,36(sp)
  104084:	dd400715 	stw	r21,28(sp)
  104088:	dcc00515 	stw	r19,20(sp)
  10408c:	dc400315 	stw	r17,12(sp)
  104090:	dc000215 	stw	r16,8(sp)
  104094:	2025883a 	mov	r18,r4
  104098:	2829883a 	mov	r20,r5
  10409c:	d8800115 	stw	r2,4(sp)
  1040a0:	05bfffc4 	movi	r22,-1
  1040a4:	d8800017 	ldw	r2,0(sp)
  1040a8:	14c05217 	ldw	r19,328(r2)
  1040ac:	98001d26 	beq	r19,zero,104124 <__call_exitprocs+0xd0>
  1040b0:	dd400117 	ldw	r21,4(sp)
  1040b4:	98800117 	ldw	r2,4(r19)
  1040b8:	173fffc4 	addi	fp,r2,-1
  1040bc:	e0000d16 	blt	fp,zero,1040f4 <__call_exitprocs+0xa0>
  1040c0:	14000044 	addi	r16,r2,1
  1040c4:	8421883a 	add	r16,r16,r16
  1040c8:	8421883a 	add	r16,r16,r16
  1040cc:	84402004 	addi	r17,r16,128
  1040d0:	9c63883a 	add	r17,r19,r17
  1040d4:	9c21883a 	add	r16,r19,r16
  1040d8:	a0001e26 	beq	r20,zero,104154 <__call_exitprocs+0x100>
  1040dc:	80804017 	ldw	r2,256(r16)
  1040e0:	15001c26 	beq	r2,r20,104154 <__call_exitprocs+0x100>
  1040e4:	e73fffc4 	addi	fp,fp,-1
  1040e8:	843fff04 	addi	r16,r16,-4
  1040ec:	8c7fff04 	addi	r17,r17,-4
  1040f0:	e5bff91e 	bne	fp,r22,1040d8 <_gp+0xffefb910>
  1040f4:	00800034 	movhi	r2,0
  1040f8:	10800004 	addi	r2,r2,0
  1040fc:	10000926 	beq	r2,zero,104124 <__call_exitprocs+0xd0>
  104100:	98800117 	ldw	r2,4(r19)
  104104:	1000311e 	bne	r2,zero,1041cc <__call_exitprocs+0x178>
  104108:	98800017 	ldw	r2,0(r19)
  10410c:	10003426 	beq	r2,zero,1041e0 <__call_exitprocs+0x18c>
  104110:	9809883a 	mov	r4,r19
  104114:	a8800015 	stw	r2,0(r21)
  104118:	00000000 	call	0 <__reset-0x100000>
  10411c:	acc00017 	ldw	r19,0(r21)
  104120:	983fe41e 	bne	r19,zero,1040b4 <_gp+0xffefb8ec>
  104124:	dfc00b17 	ldw	ra,44(sp)
  104128:	df000a17 	ldw	fp,40(sp)
  10412c:	ddc00917 	ldw	r23,36(sp)
  104130:	dd800817 	ldw	r22,32(sp)
  104134:	dd400717 	ldw	r21,28(sp)
  104138:	dd000617 	ldw	r20,24(sp)
  10413c:	dcc00517 	ldw	r19,20(sp)
  104140:	dc800417 	ldw	r18,16(sp)
  104144:	dc400317 	ldw	r17,12(sp)
  104148:	dc000217 	ldw	r16,8(sp)
  10414c:	dec00c04 	addi	sp,sp,48
  104150:	f800283a 	ret
  104154:	98800117 	ldw	r2,4(r19)
  104158:	80c00017 	ldw	r3,0(r16)
  10415c:	10bfffc4 	addi	r2,r2,-1
  104160:	17001526 	beq	r2,fp,1041b8 <__call_exitprocs+0x164>
  104164:	80000015 	stw	zero,0(r16)
  104168:	183fde26 	beq	r3,zero,1040e4 <_gp+0xffefb91c>
  10416c:	00800044 	movi	r2,1
  104170:	1708983a 	sll	r4,r2,fp
  104174:	98806217 	ldw	r2,392(r19)
  104178:	9dc00117 	ldw	r23,4(r19)
  10417c:	2084703a 	and	r2,r4,r2
  104180:	1000061e 	bne	r2,zero,10419c <__call_exitprocs+0x148>
  104184:	183ee83a 	callr	r3
  104188:	98800117 	ldw	r2,4(r19)
  10418c:	15ffc51e 	bne	r2,r23,1040a4 <_gp+0xffefb8dc>
  104190:	a8800017 	ldw	r2,0(r21)
  104194:	14ffd326 	beq	r2,r19,1040e4 <_gp+0xffefb91c>
  104198:	003fc206 	br	1040a4 <_gp+0xffefb8dc>
  10419c:	98806317 	ldw	r2,396(r19)
  1041a0:	2084703a 	and	r2,r4,r2
  1041a4:	1000061e 	bne	r2,zero,1041c0 <__call_exitprocs+0x16c>
  1041a8:	89400017 	ldw	r5,0(r17)
  1041ac:	9009883a 	mov	r4,r18
  1041b0:	183ee83a 	callr	r3
  1041b4:	003ff406 	br	104188 <_gp+0xffefb9c0>
  1041b8:	9f000115 	stw	fp,4(r19)
  1041bc:	003fea06 	br	104168 <_gp+0xffefb9a0>
  1041c0:	89000017 	ldw	r4,0(r17)
  1041c4:	183ee83a 	callr	r3
  1041c8:	003fef06 	br	104188 <_gp+0xffefb9c0>
  1041cc:	98800017 	ldw	r2,0(r19)
  1041d0:	982b883a 	mov	r21,r19
  1041d4:	1027883a 	mov	r19,r2
  1041d8:	983fb61e 	bne	r19,zero,1040b4 <_gp+0xffefb8ec>
  1041dc:	003fd106 	br	104124 <_gp+0xffefb95c>
  1041e0:	0005883a 	mov	r2,zero
  1041e4:	003ffa06 	br	1041d0 <_gp+0xffefba08>

001041e8 <_exit>:
  1041e8:	defffd04 	addi	sp,sp,-12
  1041ec:	df000215 	stw	fp,8(sp)
  1041f0:	df000204 	addi	fp,sp,8
  1041f4:	e13fff15 	stw	r4,-4(fp)
  1041f8:	0001883a 	nop
  1041fc:	e0bfff17 	ldw	r2,-4(fp)
  104200:	e0bffe15 	stw	r2,-8(fp)
  104204:	e0bffe17 	ldw	r2,-8(fp)
  104208:	10000226 	beq	r2,zero,104214 <_exit+0x2c>
  10420c:	002af070 	cmpltui	zero,zero,43969
  104210:	00000106 	br	104218 <_exit+0x30>
  104214:	002af0b0 	cmpltui	zero,zero,43970
  104218:	003fff06 	br	104218 <_gp+0xffefba50>
