
lms_ctr_app.elf:     file format elf32-littlenios2
lms_ctr_app.elf
architecture: nios2:r1, flags 0x00000112:
EXEC_P, HAS_SYMS, D_PAGED
start address 0x0010022c

Program Header:
    LOAD off    0x00001000 vaddr 0x00100000 paddr 0x00100000 align 2**12
         filesz 0x00000020 memsz 0x00000020 flags r-x
    LOAD off    0x00001020 vaddr 0x00100020 paddr 0x00100020 align 2**12
         filesz 0x000041f0 memsz 0x000041f0 flags r-x
    LOAD off    0x00006000 vaddr 0x00200000 paddr 0x00104210 align 2**12
         filesz 0x0000080c memsz 0x00000ad8 flags rw-

Sections:
Idx Name          Size      VMA       LMA       File off  Algn
  0 .entry        00000020  00100000  00100000  00001000  2**5
                  CONTENTS, ALLOC, LOAD, READONLY, CODE
  1 .exceptions   0000020c  00100020  00100020  00001020  2**2
                  CONTENTS, ALLOC, LOAD, READONLY, CODE
  2 .text         00003fe4  0010022c  0010022c  0000122c  2**2
                  CONTENTS, ALLOC, LOAD, READONLY, CODE
  3 .rodata       00000038  00200000  00104210  00006000  2**2
                  CONTENTS, ALLOC, LOAD, READONLY, DATA
  4 .rwdata       000007d4  00200038  00104248  00006038  2**2
                  CONTENTS, ALLOC, LOAD, DATA, SMALL_DATA
  5 .bss          000002cc  0020080c  00104a1c  0000680c  2**2
                  ALLOC, SMALL_DATA
  6 .onchip_flash_0_data 00000000  00104a1c  00104a1c  0000680c  2**0
                  CONTENTS
  7 .onchip_memory2_0 00000000  00200ad8  00200ad8  0000680c  2**0
                  CONTENTS
  8 .comment      00000023  00000000  00000000  0000680c  2**0
                  CONTENTS, READONLY
  9 .debug_aranges 000005b8  00000000  00000000  00006830  2**3
                  CONTENTS, READONLY, DEBUGGING
 10 .debug_info   0000732f  00000000  00000000  00006de8  2**0
                  CONTENTS, READONLY, DEBUGGING
 11 .debug_abbrev 00002656  00000000  00000000  0000e117  2**0
                  CONTENTS, READONLY, DEBUGGING
 12 .debug_line   00002a43  00000000  00000000  0001076d  2**0
                  CONTENTS, READONLY, DEBUGGING
 13 .debug_frame  00000c20  00000000  00000000  000131b0  2**2
                  CONTENTS, READONLY, DEBUGGING
 14 .debug_str    00002041  00000000  00000000  00013dd0  2**0
                  CONTENTS, READONLY, DEBUGGING
 15 .debug_loc    00000c1a  00000000  00000000  00015e11  2**0
                  CONTENTS, READONLY, DEBUGGING
 16 .debug_alt_sim_info 00000040  00000000  00000000  00016a2c  2**2
                  CONTENTS, READONLY, DEBUGGING
 17 .debug_ranges 00000138  00000000  00000000  00016a70  2**3
                  CONTENTS, READONLY, DEBUGGING
 18 .thread_model 00000003  00000000  00000000  00018d67  2**0
                  CONTENTS, READONLY
 19 .cpu          00000009  00000000  00000000  00018d6a  2**0
                  CONTENTS, READONLY
 20 .qsys         00000001  00000000  00000000  00018d73  2**0
                  CONTENTS, READONLY
 21 .simulation_enabled 00000001  00000000  00000000  00018d74  2**0
                  CONTENTS, READONLY
 22 .sysid_hash   00000004  00000000  00000000  00018d75  2**0
                  CONTENTS, READONLY
 23 .sysid_base   00000004  00000000  00000000  00018d79  2**0
                  CONTENTS, READONLY
 24 .sysid_time   00000004  00000000  00000000  00018d7d  2**0
                  CONTENTS, READONLY
 25 .stderr_dev   00000004  00000000  00000000  00018d81  2**0
                  CONTENTS, READONLY
 26 .stdin_dev    00000004  00000000  00000000  00018d85  2**0
                  CONTENTS, READONLY
 27 .stdout_dev   00000004  00000000  00000000  00018d89  2**0
                  CONTENTS, READONLY
 28 .sopc_system_name 00000007  00000000  00000000  00018d8d  2**0
                  CONTENTS, READONLY
 29 .sopcinfo     000741f0  00000000  00000000  00018d94  2**0
                  CONTENTS, READONLY
SYMBOL TABLE:
00100000 l    d  .entry	00000000 .entry
00100020 l    d  .exceptions	00000000 .exceptions
0010022c l    d  .text	00000000 .text
00200000 l    d  .rodata	00000000 .rodata
00200038 l    d  .rwdata	00000000 .rwdata
0020080c l    d  .bss	00000000 .bss
00104a1c l    d  .onchip_flash_0_data	00000000 .onchip_flash_0_data
00200ad8 l    d  .onchip_memory2_0	00000000 .onchip_memory2_0
00000000 l    d  .comment	00000000 .comment
00000000 l    d  .debug_aranges	00000000 .debug_aranges
00000000 l    d  .debug_info	00000000 .debug_info
00000000 l    d  .debug_abbrev	00000000 .debug_abbrev
00000000 l    d  .debug_line	00000000 .debug_line
00000000 l    d  .debug_frame	00000000 .debug_frame
00000000 l    d  .debug_str	00000000 .debug_str
00000000 l    d  .debug_loc	00000000 .debug_loc
00000000 l    d  .debug_alt_sim_info	00000000 .debug_alt_sim_info
00000000 l    d  .debug_ranges	00000000 .debug_ranges
00000000 l    df *ABS*	00000000 ../lms_ctr_bsp//obj/HAL/src/crt0.o
00100264 l       .text	00000000 alt_after_alt_main
00000000 l    df *ABS*	00000000 alt_irq_handler.c
00000000 l    df *ABS*	00000000 alt_instruction_exception_entry.c
00000000 l    df *ABS*	00000000 i2c_opencores.c
00000000 l    df *ABS*	00000000 main.c
00000000 l    df *ABS*	00000000 spi_flash_lib.c
00000000 l    df *ABS*	00000000 lib2-divmod.c
001013c0 l     F .text	0000006c udivmodsi4
00000000 l    df *ABS*	00000000 lib2-mul.c
00000000 l    df *ABS*	00000000 memset.c
00000000 l    df *ABS*	00000000 alt_load.c
00101638 l     F .text	00000064 alt_load_section
00000000 l    df *ABS*	00000000 alt_main.c
00000000 l    df *ABS*	00000000 alt_usleep.c
00000000 l    df *ABS*	00000000 alt_sys_init.c
001017a8 l     F .text	00000038 alt_dev_reg
00200038 l     O .rwdata	000000c4 uart
002000fc l     O .rwdata	00000100 onchip_flash_0
00000000 l    df *ABS*	00000000 altera_avalon_spi.c
00000000 l    df *ABS*	00000000 altera_avalon_uart_fd.c
00000000 l    df *ABS*	00000000 altera_avalon_uart_init.c
00101c30 l     F .text	00000098 altera_avalon_uart_irq
00101cc8 l     F .text	000000e0 altera_avalon_uart_rxirq
00101da8 l     F .text	00000144 altera_avalon_uart_txirq
00000000 l    df *ABS*	00000000 altera_avalon_uart_read.c
00101f40 l     F .text	00000050 alt_get_errno
00000000 l    df *ABS*	00000000 altera_avalon_uart_write.c
0010216c l     F .text	00000050 alt_get_errno
00000000 l    df *ABS*	00000000 altera_onchip_flash.c
00102368 l     F .text	00000038 alt_flash_device_register
00000000 l    df *ABS*	00000000 alt_busy_sleep.c
00000000 l    df *ABS*	00000000 alt_close.c
001033ec l     F .text	00000050 alt_get_errno
00000000 l    df *ABS*	00000000 alt_dcache_flush.c
00000000 l    df *ABS*	00000000 alt_dcache_flush_all.c
00000000 l    df *ABS*	00000000 alt_dev.c
00103554 l     F .text	0000002c alt_dev_null_write
00000000 l    df *ABS*	00000000 alt_dev_llist_insert.c
00103580 l     F .text	00000050 alt_get_errno
00000000 l    df *ABS*	00000000 alt_do_ctors.c
00000000 l    df *ABS*	00000000 alt_do_dtors.c
00000000 l    df *ABS*	00000000 alt_errno.c
00000000 l    df *ABS*	00000000 alt_flash_dev.c
00000000 l    df *ABS*	00000000 alt_icache_flush_all.c
00000000 l    df *ABS*	00000000 alt_iic.c
00000000 l    df *ABS*	00000000 alt_iic_isr_register.c
00000000 l    df *ABS*	00000000 alt_irq_vars.c
00000000 l    df *ABS*	00000000 alt_release_fd.c
00000000 l    df *ABS*	00000000 altera_nios2_gen2_irq.c
00000000 l    df *ABS*	00000000 alt_find_dev.c
00000000 l    df *ABS*	00000000 atexit.c
00000000 l    df *ABS*	00000000 exit.c
00000000 l    df *ABS*	00000000 impure.c
002003a4 l     O .rwdata	00000424 impure_data
00000000 l    df *ABS*	00000000 int_errno.c
00000000 l    df *ABS*	00000000 memcmp.c
00000000 l    df *ABS*	00000000 memcpy.c
00000000 l    df *ABS*	00000000 strlen.c
00000000 l    df *ABS*	00000000 __atexit.c
00000000 l    df *ABS*	00000000 __call_atexit.c
00000000 l    df *ABS*	00000000 alt_exit.c
00200850 g     O .bss	00000004 alt_instruction_exception_handler
0010171c g     F .text	0000005c alt_main
002009d8 g     O .bss	00000100 alt_irq
0010111c g     F .text	000001a0 FlashSpiTransfer
00104248 g       *ABS*	00000000 __flash_rwdata_start
002007c8 g     O .rwdata	00000004 Board_Config_FPGA
0020081c g     O .bss	00000001 block
00200858 g     O .bss	00000040 glEp0Buffer_Tx
002007cc g     O .rwdata	00000002 converted_val
0020081d g     O .bss	00000001 data_cnt
0020081e g     O .bss	00000002 dac_data
00103b50 g     F .text	00000020 altera_nios2_gen2_irq_init
00000000  w      *UND*	00000000 __errno
00100000 g     F .entry	0000000c __reset
00100020 g       *ABS*	00000000 __flash_exceptions_start
00200854 g     O .bss	00000004 errno
00200844 g     O .bss	00000004 alt_argv
002087c8 g       *ABS*	00000000 _gp
00101778 g     F .text	00000030 usleep
00200820 g     O .bss	00000001 MCU_retries
00103204 g     F .text	00000090 alt_onchip_flash_poll_for_status_write_passed
00200224 g     O .rwdata	00000180 alt_fd_list
00200821 g     O .bss	00000004 sc_brdg_data
00103b70 g     F .text	00000090 alt_find_dev
00103d64 g     F .text	00000138 memcpy
00100000 g       *ABS*	00000000 __alt_mem_onchip_flash_0_data
00104210 g       *ABS*	00000000 __DTOR_END__
00103c00 g     F .text	0000009c alt_exception_cause_generated_bad_addr
001002dc g     F .text	00000038 I2C_start
00000000  w      *UND*	00000000 malloc
00200000 g       *ABS*	00000000 __alt_mem_onchip_memory2_0
001014dc g     F .text	00000008 .hidden __udivsi3
00103174 g     F .text	00000090 alt_onchip_flash_poll_for_status_erase_passed
002007d8 g     O .rwdata	00000008 altera_onchip_flash_list
00101044 g     F .text	000000d8 CyFxSpiWaitForStatus
00103514 g     F .text	00000024 alt_dcache_flush
00102508 g     F .text	00000168 alt_onchip_flash_erase_block
002007f0 g     O .rwdata	00000004 alt_max_fd
00200804 g     O .rwdata	00000004 _global_impure_ptr
001003fc g     F .text	00000014 set_led
00200ad8 g       *ABS*	00000000 __bss_end
001039e0 g     F .text	000000f0 alt_iic_isr_register
00101b88 g     F .text	000000a8 altera_avalon_uart_init
00200828 g     O .bss	00000004 fpga_data
00103994 g     F .text	0000004c alt_ic_irq_enabled
0020084c g     O .bss	00000004 alt_irq_active
001000fc g     F .exceptions	000000d0 alt_irq_handler
002001fc g     O .rwdata	00000028 alt_dev_null
00103538 g     F .text	0000001c alt_dcache_flush_all
0020080c g       *ABS*	00000000 __ram_rwdata_end
001004f8 g     F .text	00000110 testEEPROM
002007e8 g     O .rwdata	00000008 alt_dev_list
00200814 g     O .bss	00000004 flash_page_data_cnt
00200038 g       *ABS*	00000000 __ram_rodata_end
001014e4 g     F .text	00000008 .hidden __umodsi3
00200ad8 g       *ABS*	00000000 end
0020082c g     O .bss	00000004 last_portion
001021bc g     F .text	000001ac altera_avalon_uart_write
001001cc g     F .exceptions	00000060 alt_instruction_exception_entry
00104210 g       *ABS*	00000000 __CTOR_LIST__
00201000 g       *ABS*	00000000 __alt_stack_pointer
00200830 g     O .bss	00000004 current_portion
00101ad8 g     F .text	00000060 altera_avalon_uart_write_fd
00101b38 g     F .text	00000050 altera_avalon_uart_close_fd
0010246c g     F .text	0000009c alt_onchip_flash_get_info
0010103c g     F .text	00000008 FlashSpiFastRead
00104048 g     F .text	00000194 __call_exitprocs
00200834 g     O .bss	00000001 test
0010022c g     F .text	0000003c _start
00101874 g     F .text	00000204 alt_avalon_spi_command
00101814 g     F .text	00000060 alt_sys_init
00103f34 g     F .text	00000114 __register_exitproc
001014ec g     F .text	00000028 .hidden __mulsi3
00200038 g       *ABS*	00000000 __ram_rwdata_start
00200000 g       *ABS*	00000000 __ram_rodata_start
00103294 g     F .text	00000158 alt_busy_sleep
00103ce8 g     F .text	0000007c memcmp
00200ad8 g       *ABS*	00000000 __alt_stack_base
001023a0 g     F .text	000000cc alt_onchip_flash_read
001035d0 g     F .text	000000a4 alt_dev_llist_insert
002007f8 g     O .rwdata	00000008 alt_flash_dev_list
0020080c g       *ABS*	00000000 __bss_start
00101514 g     F .text	00000124 memset
00100608 g     F .text	000009f4 main
00200848 g     O .bss	00000004 alt_envp
001003cc g     F .text	00000030 getFifoData
0020083c g     O .bss	00000001 spiFastRead
00100410 g     F .text	000000e8 Configure_LM75
002007f4 g     O .rwdata	00000004 alt_errno
001030e4 g     F .text	00000090 alt_onchip_flash_poll_for_status_to_go_idle
0010142c g     F .text	00000054 .hidden __divsi3
00104210 g       *ABS*	00000000 __CTOR_END__
00102c0c g     F .text	000004d8 altera_onchip_flash_init
00100314 g     F .text	0000002c I2C_read
00104210 g       *ABS*	00000000 __flash_rodata_start
00104210 g       *ABS*	00000000 __DTOR_LIST__
001017e0 g     F .text	00000034 alt_irq_init
00103ad0 g     F .text	00000080 alt_release_fd
00103c9c g     F .text	00000014 atexit
002007d0 g     O .rwdata	00000004 LMS_Ctrl_Packet_Rx
00200808 g     O .rwdata	00000004 _impure_ptr
00200840 g     O .bss	00000004 alt_argc
001036d0 g     F .text	0000005c _do_dtors
00100020 g       .exceptions	00000000 alt_irq_entry
002007e0 g     O .rwdata	00000008 alt_fs_list
00102670 g     F .text	000002c4 alt_onchip_flash_write_block
002007ce g     O .rwdata	00000001 dac_val
00200818 g     O .bss	00000004 flash_page
00100268 g     F .text	00000074 I2C_init
00100020 g       *ABS*	00000000 __ram_exceptions_start
00103800 g     F .text	00000050 alt_ic_isr_register
0020080c g       *ABS*	00000000 _edata
00101a78 g     F .text	00000060 altera_avalon_uart_read_fd
00102934 g     F .text	000002d8 alt_onchip_flash_write
00200ad8 g       *ABS*	00000000 _end
0010372c g     F .text	00000068 alt_flash_open_dev
0010022c g       *ABS*	00000000 __ram_exceptions_end
00200810 g     O .bss	00000004 flash_data_cnt_free
001038f0 g     F .text	000000a4 alt_ic_irq_disable
00200835 g     O .bss	00000001 cmd_errors
00103cb0 g     F .text	00000038 exit
00103794 g     F .text	00000050 alt_flash_close_dev
00101480 g     F .text	0000005c .hidden __modsi3
00100ffc g     F .text	00000040 ReverseBitOrder
00201000 g       *ABS*	00000000 __alt_data_end
00100020 g     F .exceptions	00000000 alt_exception
00200898 g     O .bss	00000100 flash_page_data
00101eec g     F .text	00000054 altera_avalon_uart_close
001041dc g     F .text	00000034 _exit
0010037c g     F .text	00000050 Check_many_blocks
00103e9c g     F .text	00000098 strlen
0020080c g     O .bss	00000004 flash_data_counter_to_copy
002007d4 g     O .rwdata	00000004 LMS_Ctrl_Packet_Tx
001037e4 g     F .text	0000001c alt_icache_flush_all
00200800 g     O .rwdata	00000004 alt_priority_mask
00103850 g     F .text	000000a0 alt_ic_irq_enable
00101f90 g     F .text	000001dc altera_avalon_uart_read
00200838 g     O .bss	00000004 fpga_byte
00103674 g     F .text	0000005c _do_ctors
0010343c g     F .text	000000d8 close
001012bc g     F .text	00000104 FlashSpiEraseSector
0010169c g     F .text	00000080 alt_load
00100340 g     F .text	0000003c I2C_write
00000000  w      *UND*	00000000 free
00200998 g     O .bss	00000040 glEp0Buffer_Rx



Disassembly of section .entry:

00100000 <__reset>:
  100000:	00400434 	movhi	at,16
  100004:	08408b14 	ori	at,at,556
  100008:	0800683a 	jmp	at
	...

Disassembly of section .exceptions:

00100020 <alt_exception>:
  100020:	deffed04 	addi	sp,sp,-76
  100024:	dfc00015 	stw	ra,0(sp)
  100028:	d8400215 	stw	at,8(sp)
  10002c:	d8800315 	stw	r2,12(sp)
  100030:	d8c00415 	stw	r3,16(sp)
  100034:	d9000515 	stw	r4,20(sp)
  100038:	d9400615 	stw	r5,24(sp)
  10003c:	d9800715 	stw	r6,28(sp)
  100040:	d9c00815 	stw	r7,32(sp)
  100044:	000b307a 	rdctl	r5,estatus
  100048:	da000915 	stw	r8,36(sp)
  10004c:	da400a15 	stw	r9,40(sp)
  100050:	da800b15 	stw	r10,44(sp)
  100054:	dac00c15 	stw	r11,48(sp)
  100058:	db000d15 	stw	r12,52(sp)
  10005c:	db400e15 	stw	r13,56(sp)
  100060:	db800f15 	stw	r14,60(sp)
  100064:	dbc01015 	stw	r15,64(sp)
  100068:	d9401115 	stw	r5,68(sp)
  10006c:	ebffff04 	addi	r15,ea,-4
  100070:	dbc01215 	stw	r15,72(sp)
  100074:	0009313a 	rdctl	r4,ipending
  100078:	2880004c 	andi	r2,r5,1
  10007c:	10000326 	beq	r2,zero,10008c <alt_exception+0x6c>
  100080:	20000226 	beq	r4,zero,10008c <alt_exception+0x6c>
  100084:	01000fc0 	call	1000fc <alt_irq_handler>
  100088:	00000706 	br	1000a8 <alt_exception+0x88>
  10008c:	df401215 	stw	ea,72(sp)
  100090:	e8bfff17 	ldw	r2,-4(ea)
  100094:	e93fff04 	addi	r4,ea,-4
  100098:	01001cc0 	call	1001cc <alt_instruction_exception_entry>
  10009c:	1000021e 	bne	r2,zero,1000a8 <alt_exception+0x88>
  1000a0:	ebffff04 	addi	r15,ea,-4
  1000a4:	dbc01215 	stw	r15,72(sp)
  1000a8:	d9401117 	ldw	r5,68(sp)
  1000ac:	df401217 	ldw	ea,72(sp)
  1000b0:	dfc00017 	ldw	ra,0(sp)
  1000b4:	2801707a 	wrctl	estatus,r5
  1000b8:	d8400217 	ldw	at,8(sp)
  1000bc:	d8800317 	ldw	r2,12(sp)
  1000c0:	d8c00417 	ldw	r3,16(sp)
  1000c4:	d9000517 	ldw	r4,20(sp)
  1000c8:	d9400617 	ldw	r5,24(sp)
  1000cc:	d9800717 	ldw	r6,28(sp)
  1000d0:	d9c00817 	ldw	r7,32(sp)
  1000d4:	da000917 	ldw	r8,36(sp)
  1000d8:	da400a17 	ldw	r9,40(sp)
  1000dc:	da800b17 	ldw	r10,44(sp)
  1000e0:	dac00c17 	ldw	r11,48(sp)
  1000e4:	db000d17 	ldw	r12,52(sp)
  1000e8:	db400e17 	ldw	r13,56(sp)
  1000ec:	db800f17 	ldw	r14,60(sp)
  1000f0:	dbc01017 	ldw	r15,64(sp)
  1000f4:	dec01304 	addi	sp,sp,76
  1000f8:	ef80083a 	eret

001000fc <alt_irq_handler>:
  1000fc:	defff904 	addi	sp,sp,-28
  100100:	dfc00615 	stw	ra,24(sp)
  100104:	df000515 	stw	fp,20(sp)
  100108:	df000504 	addi	fp,sp,20
  10010c:	0001883a 	nop
  100110:	0005313a 	rdctl	r2,ipending
  100114:	e0bffe15 	stw	r2,-8(fp)
  100118:	e0bffe17 	ldw	r2,-8(fp)
  10011c:	e0bffb15 	stw	r2,-20(fp)
  100120:	e03ffd15 	stw	zero,-12(fp)
  100124:	00800044 	movi	r2,1
  100128:	e0bffc15 	stw	r2,-16(fp)
  10012c:	e0fffb17 	ldw	r3,-20(fp)
  100130:	e0bffc17 	ldw	r2,-16(fp)
  100134:	1884703a 	and	r2,r3,r2
  100138:	10001426 	beq	r2,zero,10018c <alt_irq_handler+0x90>
  10013c:	00800834 	movhi	r2,32
  100140:	10827604 	addi	r2,r2,2520
  100144:	e0fffd17 	ldw	r3,-12(fp)
  100148:	180690fa 	slli	r3,r3,3
  10014c:	10c5883a 	add	r2,r2,r3
  100150:	10c00017 	ldw	r3,0(r2)
  100154:	00800834 	movhi	r2,32
  100158:	10827604 	addi	r2,r2,2520
  10015c:	e13ffd17 	ldw	r4,-12(fp)
  100160:	200890fa 	slli	r4,r4,3
  100164:	21000104 	addi	r4,r4,4
  100168:	1105883a 	add	r2,r2,r4
  10016c:	10800017 	ldw	r2,0(r2)
  100170:	1009883a 	mov	r4,r2
  100174:	183ee83a 	callr	r3
  100178:	0001883a 	nop
  10017c:	0005313a 	rdctl	r2,ipending
  100180:	e0bfff15 	stw	r2,-4(fp)
  100184:	e0bfff17 	ldw	r2,-4(fp)
  100188:	00000706 	br	1001a8 <alt_irq_handler+0xac>
  10018c:	e0bffc17 	ldw	r2,-16(fp)
  100190:	1085883a 	add	r2,r2,r2
  100194:	e0bffc15 	stw	r2,-16(fp)
  100198:	e0bffd17 	ldw	r2,-12(fp)
  10019c:	10800044 	addi	r2,r2,1
  1001a0:	e0bffd15 	stw	r2,-12(fp)
  1001a4:	003fe106 	br	10012c <_gp+0xffef7964>
  1001a8:	e0bffb15 	stw	r2,-20(fp)
  1001ac:	e0bffb17 	ldw	r2,-20(fp)
  1001b0:	103fdb1e 	bne	r2,zero,100120 <_gp+0xffef7958>
  1001b4:	0001883a 	nop
  1001b8:	e037883a 	mov	sp,fp
  1001bc:	dfc00117 	ldw	ra,4(sp)
  1001c0:	df000017 	ldw	fp,0(sp)
  1001c4:	dec00204 	addi	sp,sp,8
  1001c8:	f800283a 	ret

001001cc <alt_instruction_exception_entry>:
  1001cc:	defffb04 	addi	sp,sp,-20
  1001d0:	dfc00415 	stw	ra,16(sp)
  1001d4:	df000315 	stw	fp,12(sp)
  1001d8:	df000304 	addi	fp,sp,12
  1001dc:	e13fff15 	stw	r4,-4(fp)
  1001e0:	00bfffc4 	movi	r2,-1
  1001e4:	e0bffd15 	stw	r2,-12(fp)
  1001e8:	e03ffe15 	stw	zero,-8(fp)
  1001ec:	d0a02217 	ldw	r2,-32632(gp)
  1001f0:	10000726 	beq	r2,zero,100210 <alt_instruction_exception_entry+0x44>
  1001f4:	d0a02217 	ldw	r2,-32632(gp)
  1001f8:	e0fffd17 	ldw	r3,-12(fp)
  1001fc:	1809883a 	mov	r4,r3
  100200:	e17fff17 	ldw	r5,-4(fp)
  100204:	e1bffe17 	ldw	r6,-8(fp)
  100208:	103ee83a 	callr	r2
  10020c:	00000206 	br	100218 <alt_instruction_exception_entry+0x4c>
  100210:	003da03a 	break	0
  100214:	0005883a 	mov	r2,zero
  100218:	e037883a 	mov	sp,fp
  10021c:	dfc00117 	ldw	ra,4(sp)
  100220:	df000017 	ldw	fp,0(sp)
  100224:	dec00204 	addi	sp,sp,8
  100228:	f800283a 	ret

Disassembly of section .text:

0010022c <_start>:
  10022c:	06c00834 	movhi	sp,32
  100230:	dec40014 	ori	sp,sp,4096
  100234:	06800834 	movhi	gp,32
  100238:	d6a1f214 	ori	gp,gp,34760
  10023c:	00800834 	movhi	r2,32
  100240:	10820314 	ori	r2,r2,2060
  100244:	00c00834 	movhi	r3,32
  100248:	18c2b614 	ori	r3,r3,2776
  10024c:	10c00326 	beq	r2,r3,10025c <_start+0x30>
  100250:	10000015 	stw	zero,0(r2)
  100254:	10800104 	addi	r2,r2,4
  100258:	10fffd36 	bltu	r2,r3,100250 <_gp+0xffef7a88>
  10025c:	010169c0 	call	10169c <alt_load>
  100260:	010171c0 	call	10171c <alt_main>

00100264 <alt_after_alt_main>:
  100264:	003fff06 	br	100264 <_gp+0xffef7a9c>

00100268 <I2C_init>:
  100268:	defffd04 	addi	sp,sp,-12
  10026c:	dc400115 	stw	r17,4(sp)
  100270:	dc000015 	stw	r16,0(sp)
  100274:	2823883a 	mov	r17,r5
  100278:	2021883a 	mov	r16,r4
  10027c:	01400144 	movi	r5,5
  100280:	3009883a 	mov	r4,r6
  100284:	dfc00215 	stw	ra,8(sp)
  100288:	01014ec0 	call	1014ec <__mulsi3>
  10028c:	8809883a 	mov	r4,r17
  100290:	100b883a 	mov	r5,r2
  100294:	01014dc0 	call	1014dc <__udivsi3>
  100298:	10bfffc4 	addi	r2,r2,-1
  10029c:	80c00204 	addi	r3,r16,8
  1002a0:	18000035 	stwio	zero,0(r3)
  1002a4:	01000044 	movi	r4,1
  1002a8:	81000435 	stwio	r4,16(r16)
  1002ac:	11003fcc 	andi	r4,r2,255
  1002b0:	81000035 	stwio	r4,0(r16)
  1002b4:	1004d23a 	srli	r2,r2,8
  1002b8:	10803fcc 	andi	r2,r2,255
  1002bc:	80800135 	stwio	r2,4(r16)
  1002c0:	00802004 	movi	r2,128
  1002c4:	18800035 	stwio	r2,0(r3)
  1002c8:	dfc00217 	ldw	ra,8(sp)
  1002cc:	dc400117 	ldw	r17,4(sp)
  1002d0:	dc000017 	ldw	r16,0(sp)
  1002d4:	dec00304 	addi	sp,sp,12
  1002d8:	f800283a 	ret

001002dc <I2C_start>:
  1002dc:	3180004c 	andi	r6,r6,1
  1002e0:	294b883a 	add	r5,r5,r5
  1002e4:	298b883a 	add	r5,r5,r6
  1002e8:	21400335 	stwio	r5,12(r4)
  1002ec:	21000404 	addi	r4,r4,16
  1002f0:	00802404 	movi	r2,144
  1002f4:	20800035 	stwio	r2,0(r4)
  1002f8:	20800037 	ldwio	r2,0(r4)
  1002fc:	1080008c 	andi	r2,r2,2
  100300:	103ffd1e 	bne	r2,zero,1002f8 <_gp+0xffef7b30>
  100304:	20800037 	ldwio	r2,0(r4)
  100308:	1004d1fa 	srli	r2,r2,7
  10030c:	1080004c 	andi	r2,r2,1
  100310:	f800283a 	ret

00100314 <I2C_read>:
  100314:	20c00404 	addi	r3,r4,16
  100318:	28000226 	beq	r5,zero,100324 <I2C_read+0x10>
  10031c:	00801a04 	movi	r2,104
  100320:	00000106 	br	100328 <I2C_read+0x14>
  100324:	00800804 	movi	r2,32
  100328:	18800035 	stwio	r2,0(r3)
  10032c:	18800037 	ldwio	r2,0(r3)
  100330:	1080008c 	andi	r2,r2,2
  100334:	103ffd1e 	bne	r2,zero,10032c <_gp+0xffef7b64>
  100338:	20800337 	ldwio	r2,12(r4)
  10033c:	f800283a 	ret

00100340 <I2C_write>:
  100340:	29403fcc 	andi	r5,r5,255
  100344:	21400335 	stwio	r5,12(r4)
  100348:	21000404 	addi	r4,r4,16
  10034c:	30000226 	beq	r6,zero,100358 <I2C_write+0x18>
  100350:	00801404 	movi	r2,80
  100354:	00000106 	br	10035c <I2C_write+0x1c>
  100358:	00800404 	movi	r2,16
  10035c:	20800035 	stwio	r2,0(r4)
  100360:	20800037 	ldwio	r2,0(r4)
  100364:	1080008c 	andi	r2,r2,2
  100368:	103ffd1e 	bne	r2,zero,100360 <_gp+0xffef7b98>
  10036c:	20800037 	ldwio	r2,0(r4)
  100370:	1004d1fa 	srli	r2,r2,7
  100374:	1080004c 	andi	r2,r2,1
  100378:	f800283a 	ret

0010037c <Check_many_blocks>:
  10037c:	defffe04 	addi	sp,sp,-8
  100380:	dc000015 	stw	r16,0(sp)
  100384:	d4200217 	ldw	r16,-32760(gp)
  100388:	21403fcc 	andi	r5,r4,255
  10038c:	01000e04 	movi	r4,56
  100390:	dfc00115 	stw	ra,4(sp)
  100394:	01014dc0 	call	1014dc <__udivsi3>
  100398:	80c00083 	ldbu	r3,2(r16)
  10039c:	10803fcc 	andi	r2,r2,255
  1003a0:	10c0052e 	bgeu	r2,r3,1003b8 <Check_many_blocks+0x3c>
  1003a4:	d0a00317 	ldw	r2,-32756(gp)
  1003a8:	00c00104 	movi	r3,4
  1003ac:	10c00045 	stb	r3,1(r2)
  1003b0:	00800044 	movi	r2,1
  1003b4:	00000106 	br	1003bc <Check_many_blocks+0x40>
  1003b8:	0005883a 	mov	r2,zero
  1003bc:	dfc00117 	ldw	ra,4(sp)
  1003c0:	dc000017 	ldw	r16,0(sp)
  1003c4:	dec00204 	addi	sp,sp,8
  1003c8:	f800283a 	ret

001003cc <getFifoData>:
  1003cc:	01800834 	movhi	r6,32
  1003d0:	2005883a 	mov	r2,r4
  1003d4:	29403fcc 	andi	r5,r5,255
  1003d8:	31883904 	addi	r6,r6,8420
  1003dc:	1107c83a 	sub	r3,r2,r4
  1003e0:	18c03fcc 	andi	r3,r3,255
  1003e4:	1940042e 	bgeu	r3,r5,1003f8 <getFifoData+0x2c>
  1003e8:	30c00037 	ldwio	r3,0(r6)
  1003ec:	10c00005 	stb	r3,0(r2)
  1003f0:	10800044 	addi	r2,r2,1
  1003f4:	003ff906 	br	1003dc <_gp+0xffef7c14>
  1003f8:	f800283a 	ret

001003fc <set_led>:
  1003fc:	00800834 	movhi	r2,32
  100400:	21003fcc 	andi	r4,r4,255
  100404:	10883004 	addi	r2,r2,8384
  100408:	11000035 	stwio	r4,0(r2)
  10040c:	f800283a 	ret

00100410 <Configure_LM75>:
  100410:	defffc04 	addi	sp,sp,-16
  100414:	dc000015 	stw	r16,0(sp)
  100418:	04000834 	movhi	r16,32
  10041c:	84082004 	addi	r16,r16,8320
  100420:	dc800215 	stw	r18,8(sp)
  100424:	04801204 	movi	r18,72
  100428:	8009883a 	mov	r4,r16
  10042c:	900b883a 	mov	r5,r18
  100430:	000d883a 	mov	r6,zero
  100434:	dfc00315 	stw	ra,12(sp)
  100438:	dc400115 	stw	r17,4(sp)
  10043c:	01002dc0 	call	1002dc <I2C_start>
  100440:	04400044 	movi	r17,1
  100444:	8009883a 	mov	r4,r16
  100448:	880b883a 	mov	r5,r17
  10044c:	000d883a 	mov	r6,zero
  100450:	01003400 	call	100340 <I2C_write>
  100454:	8009883a 	mov	r4,r16
  100458:	880d883a 	mov	r6,r17
  10045c:	01400104 	movi	r5,4
  100460:	01003400 	call	100340 <I2C_write>
  100464:	8009883a 	mov	r4,r16
  100468:	900b883a 	mov	r5,r18
  10046c:	000d883a 	mov	r6,zero
  100470:	01002dc0 	call	1002dc <I2C_start>
  100474:	8009883a 	mov	r4,r16
  100478:	01400084 	movi	r5,2
  10047c:	000d883a 	mov	r6,zero
  100480:	01003400 	call	100340 <I2C_write>
  100484:	8009883a 	mov	r4,r16
  100488:	01400b44 	movi	r5,45
  10048c:	000d883a 	mov	r6,zero
  100490:	01003400 	call	100340 <I2C_write>
  100494:	8009883a 	mov	r4,r16
  100498:	880d883a 	mov	r6,r17
  10049c:	000b883a 	mov	r5,zero
  1004a0:	01003400 	call	100340 <I2C_write>
  1004a4:	8009883a 	mov	r4,r16
  1004a8:	900b883a 	mov	r5,r18
  1004ac:	000d883a 	mov	r6,zero
  1004b0:	01002dc0 	call	1002dc <I2C_start>
  1004b4:	8009883a 	mov	r4,r16
  1004b8:	014000c4 	movi	r5,3
  1004bc:	000d883a 	mov	r6,zero
  1004c0:	01003400 	call	100340 <I2C_write>
  1004c4:	8009883a 	mov	r4,r16
  1004c8:	01400dc4 	movi	r5,55
  1004cc:	000d883a 	mov	r6,zero
  1004d0:	01003400 	call	100340 <I2C_write>
  1004d4:	8009883a 	mov	r4,r16
  1004d8:	000b883a 	mov	r5,zero
  1004dc:	880d883a 	mov	r6,r17
  1004e0:	dfc00317 	ldw	ra,12(sp)
  1004e4:	dc800217 	ldw	r18,8(sp)
  1004e8:	dc400117 	ldw	r17,4(sp)
  1004ec:	dc000017 	ldw	r16,0(sp)
  1004f0:	dec00404 	addi	sp,sp,16
  1004f4:	01003401 	jmpi	100340 <I2C_write>

001004f8 <testEEPROM>:
  1004f8:	defffc04 	addi	sp,sp,-16
  1004fc:	dc000015 	stw	r16,0(sp)
  100500:	04000834 	movhi	r16,32
  100504:	84082004 	addi	r16,r16,8320
  100508:	dc800215 	stw	r18,8(sp)
  10050c:	04801404 	movi	r18,80
  100510:	8009883a 	mov	r4,r16
  100514:	900b883a 	mov	r5,r18
  100518:	000d883a 	mov	r6,zero
  10051c:	dfc00315 	stw	ra,12(sp)
  100520:	dc400115 	stw	r17,4(sp)
  100524:	01002dc0 	call	1002dc <I2C_start>
  100528:	8009883a 	mov	r4,r16
  10052c:	000b883a 	mov	r5,zero
  100530:	000d883a 	mov	r6,zero
  100534:	01003400 	call	100340 <I2C_write>
  100538:	8009883a 	mov	r4,r16
  10053c:	000b883a 	mov	r5,zero
  100540:	000d883a 	mov	r6,zero
  100544:	04400044 	movi	r17,1
  100548:	01003400 	call	100340 <I2C_write>
  10054c:	880d883a 	mov	r6,r17
  100550:	8009883a 	mov	r4,r16
  100554:	900b883a 	mov	r5,r18
  100558:	01002dc0 	call	1002dc <I2C_start>
  10055c:	8009883a 	mov	r4,r16
  100560:	880b883a 	mov	r5,r17
  100564:	01003140 	call	100314 <I2C_read>
  100568:	8009883a 	mov	r4,r16
  10056c:	900b883a 	mov	r5,r18
  100570:	000d883a 	mov	r6,zero
  100574:	01002dc0 	call	1002dc <I2C_start>
  100578:	8009883a 	mov	r4,r16
  10057c:	000b883a 	mov	r5,zero
  100580:	000d883a 	mov	r6,zero
  100584:	01003400 	call	100340 <I2C_write>
  100588:	8009883a 	mov	r4,r16
  10058c:	880b883a 	mov	r5,r17
  100590:	000d883a 	mov	r6,zero
  100594:	01003400 	call	100340 <I2C_write>
  100598:	8009883a 	mov	r4,r16
  10059c:	880d883a 	mov	r6,r17
  1005a0:	01401684 	movi	r5,90
  1005a4:	01003400 	call	100340 <I2C_write>
  1005a8:	8009883a 	mov	r4,r16
  1005ac:	900b883a 	mov	r5,r18
  1005b0:	000d883a 	mov	r6,zero
  1005b4:	01002dc0 	call	1002dc <I2C_start>
  1005b8:	8009883a 	mov	r4,r16
  1005bc:	000b883a 	mov	r5,zero
  1005c0:	000d883a 	mov	r6,zero
  1005c4:	01003400 	call	100340 <I2C_write>
  1005c8:	8009883a 	mov	r4,r16
  1005cc:	880b883a 	mov	r5,r17
  1005d0:	000d883a 	mov	r6,zero
  1005d4:	01003400 	call	100340 <I2C_write>
  1005d8:	8009883a 	mov	r4,r16
  1005dc:	900b883a 	mov	r5,r18
  1005e0:	880d883a 	mov	r6,r17
  1005e4:	01002dc0 	call	1002dc <I2C_start>
  1005e8:	8009883a 	mov	r4,r16
  1005ec:	880b883a 	mov	r5,r17
  1005f0:	dfc00317 	ldw	ra,12(sp)
  1005f4:	dc800217 	ldw	r18,8(sp)
  1005f8:	dc400117 	ldw	r17,4(sp)
  1005fc:	dc000017 	ldw	r16,0(sp)
  100600:	dec00404 	addi	sp,sp,16
  100604:	01003141 	jmpi	100314 <I2C_read>

00100608 <main>:
  100608:	defff304 	addi	sp,sp,-52
  10060c:	dc800615 	stw	r18,24(sp)
  100610:	04800834 	movhi	r18,32
  100614:	dfc00c15 	stw	ra,48(sp)
  100618:	ddc00b15 	stw	r23,44(sp)
  10061c:	dd800a15 	stw	r22,40(sp)
  100620:	dd400915 	stw	r21,36(sp)
  100624:	dd000815 	stw	r20,32(sp)
  100628:	dcc00715 	stw	r19,28(sp)
  10062c:	dc400515 	stw	r17,20(sp)
  100630:	dc000415 	stw	r16,16(sp)
  100634:	94881004 	addi	r18,r18,8256
  100638:	00800184 	movi	r2,6
  10063c:	90800035 	stwio	r2,0(r18)
  100640:	008001c4 	movi	r2,7
  100644:	90800035 	stwio	r2,0(r18)
  100648:	d0a00183 	ldbu	r2,-32762(gp)
  10064c:	d4e01584 	addi	r19,gp,-32682
  100650:	01000834 	movhi	r4,32
  100654:	10c03fcc 	andi	r3,r2,255
  100658:	1806d0ba 	srli	r3,r3,2
  10065c:	100491ba 	slli	r2,r2,6
  100660:	980f883a 	mov	r7,r19
  100664:	21080004 	addi	r4,r4,8192
  100668:	000b883a 	mov	r5,zero
  10066c:	01800084 	movi	r6,2
  100670:	d8000015 	stw	zero,0(sp)
  100674:	d8000115 	stw	zero,4(sp)
  100678:	d8000215 	stw	zero,8(sp)
  10067c:	d0e01585 	stb	r3,-32682(gp)
  100680:	98800045 	stb	r2,1(r19)
  100684:	01018740 	call	101874 <alt_avalon_spi_command>
  100688:	01000834 	movhi	r4,32
  10068c:	01407574 	movhi	r5,469
  100690:	018000b4 	movhi	r6,2
  100694:	21082004 	addi	r4,r4,8320
  100698:	29700004 	addi	r5,r5,-16384
  10069c:	31a1a804 	addi	r6,r6,-31072
  1006a0:	05000834 	movhi	r20,32
  1006a4:	d4201644 	addi	r16,gp,-32679
  1006a8:	d8800315 	stw	r2,12(sp)
  1006ac:	a5083a04 	addi	r20,r20,8424
  1006b0:	01002680 	call	100268 <I2C_init>
  1006b4:	8023883a 	mov	r17,r16
  1006b8:	01004100 	call	100410 <Configure_LM75>
  1006bc:	a0800037 	ldwio	r2,0(r20)
  1006c0:	d8800315 	stw	r2,12(sp)
  1006c4:	d8800317 	ldw	r2,12(sp)
  1006c8:	1080004c 	andi	r2,r2,1
  1006cc:	103ffb1e 	bne	r2,zero,1006bc <_gp+0xffef7ef4>
  1006d0:	01000834 	movhi	r4,32
  1006d4:	21026604 	addi	r4,r4,2456
  1006d8:	01401004 	movi	r5,64
  1006dc:	01003cc0 	call	1003cc <getFifoData>
  1006e0:	01000834 	movhi	r4,32
  1006e4:	21021604 	addi	r4,r4,2136
  1006e8:	000b883a 	mov	r5,zero
  1006ec:	01801004 	movi	r6,64
  1006f0:	01015140 	call	101514 <memset>
  1006f4:	d1200217 	ldw	r4,-32760(gp)
  1006f8:	d0201b45 	stb	zero,-32659(gp)
  1006fc:	d0a00317 	ldw	r2,-32756(gp)
  100700:	20c00003 	ldbu	r3,0(r4)
  100704:	054000c4 	movi	r21,3
  100708:	01400b04 	movi	r5,44
  10070c:	10c00005 	stb	r3,0(r2)
  100710:	20c00083 	ldbu	r3,2(r4)
  100714:	10c00085 	stb	r3,2(r2)
  100718:	20c000c3 	ldbu	r3,3(r4)
  10071c:	15400045 	stb	r21,1(r2)
  100720:	10c000c5 	stb	r3,3(r2)
  100724:	20c00003 	ldbu	r3,0(r4)
  100728:	19416926 	beq	r3,r5,100cd0 <main+0x6c8>
  10072c:	28c01236 	bltu	r5,r3,100778 <main+0x170>
  100730:	01400804 	movi	r5,32
  100734:	19402026 	beq	r3,r5,1007b8 <main+0x1b0>
  100738:	28c00a36 	bltu	r5,r3,100764 <main+0x15c>
  10073c:	1802271e 	bne	r3,zero,100fdc <main+0x9d4>
  100740:	00c00104 	movi	r3,4
  100744:	10c00205 	stb	r3,8(r2)
  100748:	00c00444 	movi	r3,17
  10074c:	10c00245 	stb	r3,9(r2)
  100750:	00c00044 	movi	r3,1
  100754:	10c00285 	stb	r3,10(r2)
  100758:	100002c5 	stb	zero,11(r2)
  10075c:	10c00305 	stb	r3,12(r2)
  100760:	00001c06 	br	1007d4 <main+0x1cc>
  100764:	01000844 	movi	r4,33
  100768:	19003526 	beq	r3,r4,100840 <main+0x238>
  10076c:	01000884 	movi	r4,34
  100770:	19005326 	beq	r3,r4,1008c0 <main+0x2b8>
  100774:	00021906 	br	100fdc <main+0x9d4>
  100778:	01401584 	movi	r5,86
  10077c:	19409326 	beq	r3,r5,1009cc <main+0x3c4>
  100780:	28c00536 	bltu	r5,r3,100798 <main+0x190>
  100784:	014014c4 	movi	r5,83
  100788:	19412f26 	beq	r3,r5,100c48 <main+0x640>
  10078c:	01001544 	movi	r4,85
  100790:	19006e26 	beq	r3,r4,10094c <main+0x344>
  100794:	00021106 	br	100fdc <main+0x9d4>
  100798:	01001844 	movi	r4,97
  10079c:	1900ff26 	beq	r3,r4,100b9c <main+0x594>
  1007a0:	01001884 	movi	r4,98
  1007a4:	19020d1e 	bne	r3,r4,100fdc <main+0x9d4>
  1007a8:	d0201505 	stb	zero,-32684(gp)
  1007ac:	05400044 	movi	r21,1
  1007b0:	05801404 	movi	r22,80
  1007b4:	0000ba06 	br	100aa0 <main+0x498>
  1007b8:	20800203 	ldbu	r2,8(r4)
  1007bc:	00c00044 	movi	r3,1
  1007c0:	10c00c1e 	bne	r2,r3,1007f4 <main+0x1ec>
  1007c4:	00800184 	movi	r2,6
  1007c8:	90800035 	stwio	r2,0(r18)
  1007cc:	d0a00317 	ldw	r2,-32756(gp)
  1007d0:	00c00044 	movi	r3,1
  1007d4:	10c00045 	stb	r3,1(r2)
  1007d8:	01800834 	movhi	r6,32
  1007dc:	01000834 	movhi	r4,32
  1007e0:	0005883a 	mov	r2,zero
  1007e4:	31821604 	addi	r6,r6,2136
  1007e8:	21083804 	addi	r4,r4,8416
  1007ec:	00c01004 	movi	r3,64
  1007f0:	0001fc06 	br	100fe4 <main+0x9dc>
  1007f4:	10000e26 	beq	r2,zero,100830 <main+0x228>
  1007f8:	01000084 	movi	r4,2
  1007fc:	11000e1e 	bne	r2,r4,100838 <main+0x230>
  100800:	00800184 	movi	r2,6
  100804:	90800035 	stwio	r2,0(r18)
  100808:	0001883a 	nop
  10080c:	0001883a 	nop
  100810:	0001883a 	nop
  100814:	0001883a 	nop
  100818:	0001883a 	nop
  10081c:	0001883a 	nop
  100820:	0001883a 	nop
  100824:	0001883a 	nop
  100828:	0001883a 	nop
  10082c:	0001883a 	nop
  100830:	008001c4 	movi	r2,7
  100834:	003fe406 	br	1007c8 <_gp+0xffef8000>
  100838:	d0e01b45 	stb	r3,-32659(gp)
  10083c:	003fe306 	br	1007cc <_gp+0xffef8004>
  100840:	01000104 	movi	r4,4
  100844:	010037c0 	call	10037c <Check_many_blocks>
  100848:	10803fcc 	andi	r2,r2,255
  10084c:	103fe21e 	bne	r2,zero,1007d8 <_gp+0xffef8010>
  100850:	d0201505 	stb	zero,-32684(gp)
  100854:	057fe004 	movi	r21,-128
  100858:	d1e00217 	ldw	r7,-32760(gp)
  10085c:	d0a01503 	ldbu	r2,-32684(gp)
  100860:	38c00083 	ldbu	r3,2(r7)
  100864:	10ffd92e 	bgeu	r2,r3,1007cc <_gp+0xffef8004>
  100868:	1085883a 	add	r2,r2,r2
  10086c:	1085883a 	add	r2,r2,r2
  100870:	3887883a 	add	r3,r7,r2
  100874:	18c00204 	addi	r3,r3,8
  100878:	19000003 	ldbu	r4,0(r3)
  10087c:	10800204 	addi	r2,r2,8
  100880:	000b883a 	mov	r5,zero
  100884:	2548b03a 	or	r4,r4,r21
  100888:	19000005 	stb	r4,0(r3)
  10088c:	01000834 	movhi	r4,32
  100890:	d8000015 	stw	zero,0(sp)
  100894:	d8000115 	stw	zero,4(sp)
  100898:	d8000215 	stw	zero,8(sp)
  10089c:	21080804 	addi	r4,r4,8224
  1008a0:	01800104 	movi	r6,4
  1008a4:	388f883a 	add	r7,r7,r2
  1008a8:	01018740 	call	101874 <alt_avalon_spi_command>
  1008ac:	d8800315 	stw	r2,12(sp)
  1008b0:	d0a01503 	ldbu	r2,-32684(gp)
  1008b4:	10800044 	addi	r2,r2,1
  1008b8:	d0a01505 	stb	r2,-32684(gp)
  1008bc:	003fe606 	br	100858 <_gp+0xffef8090>
  1008c0:	01000104 	movi	r4,4
  1008c4:	010037c0 	call	10037c <Check_many_blocks>
  1008c8:	10803fcc 	andi	r2,r2,255
  1008cc:	103fc21e 	bne	r2,zero,1007d8 <_gp+0xffef8010>
  1008d0:	d0201505 	stb	zero,-32684(gp)
  1008d4:	05400084 	movi	r21,2
  1008d8:	d1e00217 	ldw	r7,-32760(gp)
  1008dc:	d0a01503 	ldbu	r2,-32684(gp)
  1008e0:	d1600317 	ldw	r5,-32756(gp)
  1008e4:	38c00083 	ldbu	r3,2(r7)
  1008e8:	10c05b2e 	bgeu	r2,r3,100a58 <main+0x450>
  1008ec:	1085883a 	add	r2,r2,r2
  1008f0:	3887883a 	add	r3,r7,r2
  1008f4:	18c00204 	addi	r3,r3,8
  1008f8:	19000003 	ldbu	r4,0(r3)
  1008fc:	01800084 	movi	r6,2
  100900:	21001fcc 	andi	r4,r4,127
  100904:	19000005 	stb	r4,0(r3)
  100908:	10c00204 	addi	r3,r2,8
  10090c:	1085883a 	add	r2,r2,r2
  100910:	10800284 	addi	r2,r2,10
  100914:	2885883a 	add	r2,r5,r2
  100918:	01000834 	movhi	r4,32
  10091c:	dd400015 	stw	r21,0(sp)
  100920:	d8800115 	stw	r2,4(sp)
  100924:	d8000215 	stw	zero,8(sp)
  100928:	21080804 	addi	r4,r4,8224
  10092c:	000b883a 	mov	r5,zero
  100930:	38cf883a 	add	r7,r7,r3
  100934:	01018740 	call	101874 <alt_avalon_spi_command>
  100938:	d8800315 	stw	r2,12(sp)
  10093c:	d0a01503 	ldbu	r2,-32684(gp)
  100940:	10800044 	addi	r2,r2,1
  100944:	d0a01505 	stb	r2,-32684(gp)
  100948:	003fe306 	br	1008d8 <_gp+0xffef8110>
  10094c:	01000104 	movi	r4,4
  100950:	010037c0 	call	10037c <Check_many_blocks>
  100954:	10803fcc 	andi	r2,r2,255
  100958:	103f9f1e 	bne	r2,zero,1007d8 <_gp+0xffef8010>
  10095c:	d0201505 	stb	zero,-32684(gp)
  100960:	057fe004 	movi	r21,-128
  100964:	d1e00217 	ldw	r7,-32760(gp)
  100968:	d0a01503 	ldbu	r2,-32684(gp)
  10096c:	38c00083 	ldbu	r3,2(r7)
  100970:	10ff962e 	bgeu	r2,r3,1007cc <_gp+0xffef8004>
  100974:	1085883a 	add	r2,r2,r2
  100978:	1085883a 	add	r2,r2,r2
  10097c:	3887883a 	add	r3,r7,r2
  100980:	18c00204 	addi	r3,r3,8
  100984:	19000003 	ldbu	r4,0(r3)
  100988:	10800204 	addi	r2,r2,8
  10098c:	01400044 	movi	r5,1
  100990:	2548b03a 	or	r4,r4,r21
  100994:	19000005 	stb	r4,0(r3)
  100998:	01000834 	movhi	r4,32
  10099c:	d8000015 	stw	zero,0(sp)
  1009a0:	d8000115 	stw	zero,4(sp)
  1009a4:	d8000215 	stw	zero,8(sp)
  1009a8:	21080804 	addi	r4,r4,8224
  1009ac:	01800104 	movi	r6,4
  1009b0:	388f883a 	add	r7,r7,r2
  1009b4:	01018740 	call	101874 <alt_avalon_spi_command>
  1009b8:	d8800315 	stw	r2,12(sp)
  1009bc:	d0a01503 	ldbu	r2,-32684(gp)
  1009c0:	10800044 	addi	r2,r2,1
  1009c4:	d0a01505 	stb	r2,-32684(gp)
  1009c8:	003fe606 	br	100964 <_gp+0xffef819c>
  1009cc:	01000104 	movi	r4,4
  1009d0:	010037c0 	call	10037c <Check_many_blocks>
  1009d4:	10803fcc 	andi	r2,r2,255
  1009d8:	103f7f1e 	bne	r2,zero,1007d8 <_gp+0xffef8010>
  1009dc:	d0201505 	stb	zero,-32684(gp)
  1009e0:	05400084 	movi	r21,2
  1009e4:	d1e00217 	ldw	r7,-32760(gp)
  1009e8:	d0a01503 	ldbu	r2,-32684(gp)
  1009ec:	d1600317 	ldw	r5,-32756(gp)
  1009f0:	38c00083 	ldbu	r3,2(r7)
  1009f4:	10c0182e 	bgeu	r2,r3,100a58 <main+0x450>
  1009f8:	1085883a 	add	r2,r2,r2
  1009fc:	3887883a 	add	r3,r7,r2
  100a00:	18c00204 	addi	r3,r3,8
  100a04:	19000003 	ldbu	r4,0(r3)
  100a08:	01800084 	movi	r6,2
  100a0c:	21001fcc 	andi	r4,r4,127
  100a10:	19000005 	stb	r4,0(r3)
  100a14:	10c00204 	addi	r3,r2,8
  100a18:	1085883a 	add	r2,r2,r2
  100a1c:	10800284 	addi	r2,r2,10
  100a20:	2885883a 	add	r2,r5,r2
  100a24:	01000834 	movhi	r4,32
  100a28:	dd400015 	stw	r21,0(sp)
  100a2c:	d8800115 	stw	r2,4(sp)
  100a30:	d8000215 	stw	zero,8(sp)
  100a34:	21080804 	addi	r4,r4,8224
  100a38:	01400044 	movi	r5,1
  100a3c:	38cf883a 	add	r7,r7,r3
  100a40:	01018740 	call	101874 <alt_avalon_spi_command>
  100a44:	d8800315 	stw	r2,12(sp)
  100a48:	d0a01503 	ldbu	r2,-32684(gp)
  100a4c:	10800044 	addi	r2,r2,1
  100a50:	d0a01505 	stb	r2,-32684(gp)
  100a54:	003fe306 	br	1009e4 <_gp+0xffef821c>
  100a58:	00800044 	movi	r2,1
  100a5c:	28800045 	stb	r2,1(r5)
  100a60:	003f5d06 	br	1007d8 <_gp+0xffef8010>
  100a64:	1887883a 	add	r3,r3,r2
  100a68:	18c00203 	ldbu	r3,8(r3)
  100a6c:	1800111e 	bne	r3,zero,100ab4 <main+0x4ac>
  100a70:	d0e00317 	ldw	r3,-32756(gp)
  100a74:	1085883a 	add	r2,r2,r2
  100a78:	1085883a 	add	r2,r2,r2
  100a7c:	1885883a 	add	r2,r3,r2
  100a80:	d0e00183 	ldbu	r3,-32762(gp)
  100a84:	10000205 	stb	zero,8(r2)
  100a88:	10000245 	stb	zero,9(r2)
  100a8c:	10000285 	stb	zero,10(r2)
  100a90:	10c002c5 	stb	r3,11(r2)
  100a94:	d0a01503 	ldbu	r2,-32684(gp)
  100a98:	10800044 	addi	r2,r2,1
  100a9c:	d0a01505 	stb	r2,-32684(gp)
  100aa0:	d0e00217 	ldw	r3,-32760(gp)
  100aa4:	d0a01503 	ldbu	r2,-32684(gp)
  100aa8:	19000083 	ldbu	r4,2(r3)
  100aac:	113fed36 	bltu	r2,r4,100a64 <_gp+0xffef829c>
  100ab0:	003f4606 	br	1007cc <_gp+0xffef8004>
  100ab4:	1d40351e 	bne	r3,r21,100b8c <main+0x584>
  100ab8:	01000834 	movhi	r4,32
  100abc:	21082004 	addi	r4,r4,8320
  100ac0:	01401204 	movi	r5,72
  100ac4:	000d883a 	mov	r6,zero
  100ac8:	01002dc0 	call	1002dc <I2C_start>
  100acc:	01000834 	movhi	r4,32
  100ad0:	21082004 	addi	r4,r4,8320
  100ad4:	000b883a 	mov	r5,zero
  100ad8:	a80d883a 	mov	r6,r21
  100adc:	d8800315 	stw	r2,12(sp)
  100ae0:	01003400 	call	100340 <I2C_write>
  100ae4:	01000834 	movhi	r4,32
  100ae8:	a80d883a 	mov	r6,r21
  100aec:	21082004 	addi	r4,r4,8320
  100af0:	01401204 	movi	r5,72
  100af4:	d8800315 	stw	r2,12(sp)
  100af8:	01002dc0 	call	1002dc <I2C_start>
  100afc:	01000834 	movhi	r4,32
  100b00:	21082004 	addi	r4,r4,8320
  100b04:	000b883a 	mov	r5,zero
  100b08:	d8800315 	stw	r2,12(sp)
  100b0c:	01003140 	call	100314 <I2C_read>
  100b10:	11003fcc 	andi	r4,r2,255
  100b14:	2100201c 	xori	r4,r4,128
  100b18:	213fe004 	addi	r4,r4,-128
  100b1c:	01400284 	movi	r5,10
  100b20:	01014ec0 	call	1014ec <__mulsi3>
  100b24:	01000834 	movhi	r4,32
  100b28:	21082004 	addi	r4,r4,8320
  100b2c:	a80b883a 	mov	r5,r21
  100b30:	d0a0010d 	sth	r2,-32764(gp)
  100b34:	01003140 	call	100314 <I2C_read>
  100b38:	d8800315 	stw	r2,12(sp)
  100b3c:	d8800317 	ldw	r2,12(sp)
  100b40:	1080200c 	andi	r2,r2,128
  100b44:	10000326 	beq	r2,zero,100b54 <main+0x54c>
  100b48:	d0a0010b 	ldhu	r2,-32764(gp)
  100b4c:	10800144 	addi	r2,r2,5
  100b50:	d0a0010d 	sth	r2,-32764(gp)
  100b54:	d0e01503 	ldbu	r3,-32684(gp)
  100b58:	d1200217 	ldw	r4,-32760(gp)
  100b5c:	18c5883a 	add	r2,r3,r3
  100b60:	20c7883a 	add	r3,r4,r3
  100b64:	d1200317 	ldw	r4,-32756(gp)
  100b68:	18c00203 	ldbu	r3,8(r3)
  100b6c:	1085883a 	add	r2,r2,r2
  100b70:	2085883a 	add	r2,r4,r2
  100b74:	10c00205 	stb	r3,8(r2)
  100b78:	d0e0010b 	ldhu	r3,-32764(gp)
  100b7c:	15800245 	stb	r22,9(r2)
  100b80:	1808d23a 	srli	r4,r3,8
  100b84:	11000285 	stb	r4,10(r2)
  100b88:	003fc106 	br	100a90 <_gp+0xffef82c8>
  100b8c:	d0a01b43 	ldbu	r2,-32659(gp)
  100b90:	10800044 	addi	r2,r2,1
  100b94:	d0a01b45 	stb	r2,-32659(gp)
  100b98:	003fbe06 	br	100a94 <_gp+0xffef82cc>
  100b9c:	01000104 	movi	r4,4
  100ba0:	010037c0 	call	10037c <Check_many_blocks>
  100ba4:	10803fcc 	andi	r2,r2,255
  100ba8:	103f0b1e 	bne	r2,zero,1007d8 <_gp+0xffef8010>
  100bac:	d0201505 	stb	zero,-32684(gp)
  100bb0:	d0a00217 	ldw	r2,-32760(gp)
  100bb4:	d0e01503 	ldbu	r3,-32684(gp)
  100bb8:	11000083 	ldbu	r4,2(r2)
  100bbc:	1901002e 	bgeu	r3,r4,100fc0 <main+0x9b8>
  100bc0:	18c7883a 	add	r3,r3,r3
  100bc4:	18c7883a 	add	r3,r3,r3
  100bc8:	10c5883a 	add	r2,r2,r3
  100bcc:	10c00203 	ldbu	r3,8(r2)
  100bd0:	1800161e 	bne	r3,zero,100c2c <main+0x624>
  100bd4:	10c00243 	ldbu	r3,9(r2)
  100bd8:	1800141e 	bne	r3,zero,100c2c <main+0x624>
  100bdc:	10c00283 	ldbu	r3,10(r2)
  100be0:	1800121e 	bne	r3,zero,100c2c <main+0x624>
  100be4:	108002c3 	ldbu	r2,11(r2)
  100be8:	01000834 	movhi	r4,32
  100bec:	d8000015 	stw	zero,0(sp)
  100bf0:	d0a00185 	stb	r2,-32762(gp)
  100bf4:	10803fcc 	andi	r2,r2,255
  100bf8:	1006d0ba 	srli	r3,r2,2
  100bfc:	100491ba 	slli	r2,r2,6
  100c00:	d8000115 	stw	zero,4(sp)
  100c04:	d8000215 	stw	zero,8(sp)
  100c08:	21080004 	addi	r4,r4,8192
  100c0c:	000b883a 	mov	r5,zero
  100c10:	01800084 	movi	r6,2
  100c14:	d1e01584 	addi	r7,gp,-32682
  100c18:	d0e01585 	stb	r3,-32682(gp)
  100c1c:	98800045 	stb	r2,1(r19)
  100c20:	01018740 	call	101874 <alt_avalon_spi_command>
  100c24:	d8800315 	stw	r2,12(sp)
  100c28:	00000306 	br	100c38 <main+0x630>
  100c2c:	d0a01b43 	ldbu	r2,-32659(gp)
  100c30:	10800044 	addi	r2,r2,1
  100c34:	d0a01b45 	stb	r2,-32659(gp)
  100c38:	d0a01503 	ldbu	r2,-32684(gp)
  100c3c:	10800044 	addi	r2,r2,1
  100c40:	d0a01505 	stb	r2,-32684(gp)
  100c44:	003fda06 	br	100bb0 <_gp+0xffef83e8>
  100c48:	20c00243 	ldbu	r3,9(r4)
  100c4c:	180a963a 	slli	r5,r3,24
  100c50:	20c00283 	ldbu	r3,10(r4)
  100c54:	1806943a 	slli	r3,r3,16
  100c58:	28c6b03a 	or	r3,r5,r3
  100c5c:	21400303 	ldbu	r5,12(r4)
  100c60:	194ab03a 	or	r5,r3,r5
  100c64:	20c002c3 	ldbu	r3,11(r4)
  100c68:	1806923a 	slli	r3,r3,8
  100c6c:	28c6b03a 	or	r3,r5,r3
  100c70:	d0e01a15 	stw	r3,-32664(gp)
  100c74:	20c00343 	ldbu	r3,13(r4)
  100c78:	21000203 	ldbu	r4,8(r4)
  100c7c:	d0e01545 	stb	r3,-32683(gp)
  100c80:	00c00044 	movi	r3,1
  100c84:	20fed426 	beq	r4,r3,1007d8 <_gp+0xffef8010>
  100c88:	2000d026 	beq	r4,zero,100fcc <main+0x9c4>
  100c8c:	01400084 	movi	r5,2
  100c90:	217ed01e 	bne	r4,r5,1007d4 <_gp+0xffef800c>
  100c94:	00800834 	movhi	r2,32
  100c98:	10882904 	addi	r2,r2,8356
  100c9c:	010000c4 	movi	r4,3
  100ca0:	11000035 	stwio	r4,0(r2)
  100ca4:	01400834 	movhi	r5,32
  100ca8:	29482b04 	addi	r5,r5,8364
  100cac:	29000037 	ldwio	r4,0(r5)
  100cb0:	00800044 	movi	r2,1
  100cb4:	20fffd26 	beq	r4,r3,100cac <_gp+0xffef84e4>
  100cb8:	00c00834 	movhi	r3,32
  100cbc:	18c82804 	addi	r3,r3,8352
  100cc0:	18800035 	stwio	r2,0(r3)
  100cc4:	d0e00317 	ldw	r3,-32756(gp)
  100cc8:	18800045 	stb	r2,1(r3)
  100ccc:	003ec206 	br	1007d8 <_gp+0xffef8010>
  100cd0:	20c00243 	ldbu	r3,9(r4)
  100cd4:	d0e01a15 	stw	r3,-32664(gp)
  100cd8:	18000526 	beq	r3,zero,100cf0 <main+0x6e8>
  100cdc:	d1201917 	ldw	r4,-32668(gp)
  100ce0:	18ffffc4 	addi	r3,r3,-1
  100ce4:	20c04126 	beq	r4,r3,100dec <main+0x7e4>
  100ce8:	00c00184 	movi	r3,6
  100cec:	003eb906 	br	1007d4 <_gp+0xffef800c>
  100cf0:	01000834 	movhi	r4,32
  100cf4:	05800084 	movi	r22,2
  100cf8:	05ffe004 	movi	r23,-128
  100cfc:	d8000015 	stw	zero,0(sp)
  100d00:	d8000115 	stw	zero,4(sp)
  100d04:	d8000215 	stw	zero,8(sp)
  100d08:	21080804 	addi	r4,r4,8224
  100d0c:	000b883a 	mov	r5,zero
  100d10:	01800104 	movi	r6,4
  100d14:	d1e01644 	addi	r7,gp,-32679
  100d18:	85800045 	stb	r22,1(r16)
  100d1c:	d5e01645 	stb	r23,-32679(gp)
  100d20:	80000085 	stb	zero,2(r16)
  100d24:	800000c5 	stb	zero,3(r16)
  100d28:	01018740 	call	101874 <alt_avalon_spi_command>
  100d2c:	d8800315 	stw	r2,12(sp)
  100d30:	d0a00217 	ldw	r2,-32760(gp)
  100d34:	85800045 	stb	r22,1(r16)
  100d38:	d5e01645 	stb	r23,-32679(gp)
  100d3c:	10800203 	ldbu	r2,8(r2)
  100d40:	80000085 	stb	zero,2(r16)
  100d44:	05800084 	movi	r22,2
  100d48:	15800426 	beq	r2,r22,100d5c <main+0x754>
  100d4c:	00c000c4 	movi	r3,3
  100d50:	10c00e26 	beq	r2,r3,100d8c <main+0x784>
  100d54:	00c00044 	movi	r3,1
  100d58:	10c0241e 	bne	r2,r3,100dec <main+0x7e4>
  100d5c:	01000834 	movhi	r4,32
  100d60:	d8000015 	stw	zero,0(sp)
  100d64:	d8000115 	stw	zero,4(sp)
  100d68:	d8000215 	stw	zero,8(sp)
  100d6c:	21080804 	addi	r4,r4,8224
  100d70:	000b883a 	mov	r5,zero
  100d74:	01800104 	movi	r6,4
  100d78:	d1e01644 	addi	r7,gp,-32679
  100d7c:	808000c5 	stb	r2,3(r16)
  100d80:	01018740 	call	101874 <alt_avalon_spi_command>
  100d84:	d8800315 	stw	r2,12(sp)
  100d88:	00001806 	br	100dec <main+0x7e4>
  100d8c:	01000834 	movhi	r4,32
  100d90:	21080804 	addi	r4,r4,8224
  100d94:	000b883a 	mov	r5,zero
  100d98:	01800104 	movi	r6,4
  100d9c:	d1e01644 	addi	r7,gp,-32679
  100da0:	d8000015 	stw	zero,0(sp)
  100da4:	d8000115 	stw	zero,4(sp)
  100da8:	d8000215 	stw	zero,8(sp)
  100dac:	808000c5 	stb	r2,3(r16)
  100db0:	01018740 	call	101874 <alt_avalon_spi_command>
  100db4:	01000834 	movhi	r4,32
  100db8:	dd800015 	stw	r22,0(sp)
  100dbc:	dc400115 	stw	r17,4(sp)
  100dc0:	d8000215 	stw	zero,8(sp)
  100dc4:	21080804 	addi	r4,r4,8224
  100dc8:	000b883a 	mov	r5,zero
  100dcc:	b00d883a 	mov	r6,r22
  100dd0:	d1e01644 	addi	r7,gp,-32679
  100dd4:	d8800315 	stw	r2,12(sp)
  100dd8:	d0201645 	stb	zero,-32679(gp)
  100ddc:	85400045 	stb	r21,1(r16)
  100de0:	01018740 	call	101874 <alt_avalon_spi_command>
  100de4:	d8800315 	stw	r2,12(sp)
  100de8:	00007506 	br	100fc0 <main+0x9b8>
  100dec:	d0201605 	stb	zero,-32680(gp)
  100df0:	05400744 	movi	r21,29
  100df4:	058000c4 	movi	r22,3
  100df8:	d0a01603 	ldbu	r2,-32680(gp)
  100dfc:	a8800f36 	bltu	r21,r2,100e3c <main+0x834>
  100e00:	01800084 	movi	r6,2
  100e04:	01000834 	movhi	r4,32
  100e08:	d9800015 	stw	r6,0(sp)
  100e0c:	dc400115 	stw	r17,4(sp)
  100e10:	d8000215 	stw	zero,8(sp)
  100e14:	21080804 	addi	r4,r4,8224
  100e18:	000b883a 	mov	r5,zero
  100e1c:	d1e01644 	addi	r7,gp,-32679
  100e20:	d0201645 	stb	zero,-32679(gp)
  100e24:	85800045 	stb	r22,1(r16)
  100e28:	01018740 	call	101874 <alt_avalon_spi_command>
  100e2c:	d8800315 	stw	r2,12(sp)
  100e30:	80800043 	ldbu	r2,1(r16)
  100e34:	1080004c 	andi	r2,r2,1
  100e38:	10000426 	beq	r2,zero,100e4c <main+0x844>
  100e3c:	d0201505 	stb	zero,-32684(gp)
  100e40:	054007c4 	movi	r21,31
  100e44:	05bfe004 	movi	r22,-128
  100e48:	00000606 	br	100e64 <main+0x85c>
  100e4c:	d0a01603 	ldbu	r2,-32680(gp)
  100e50:	01000784 	movi	r4,30
  100e54:	10800044 	addi	r2,r2,1
  100e58:	d0a01605 	stb	r2,-32680(gp)
  100e5c:	01017780 	call	101778 <usleep>
  100e60:	003fe506 	br	100df8 <_gp+0xffef8630>
  100e64:	d0a01503 	ldbu	r2,-32684(gp)
  100e68:	a8801736 	bltu	r21,r2,100ec8 <main+0x8c0>
  100e6c:	00c00104 	movi	r3,4
  100e70:	88c00045 	stb	r3,1(r17)
  100e74:	d0e00217 	ldw	r3,-32760(gp)
  100e78:	88000085 	stb	zero,2(r17)
  100e7c:	01000834 	movhi	r4,32
  100e80:	1885883a 	add	r2,r3,r2
  100e84:	10800283 	ldbu	r2,10(r2)
  100e88:	21080804 	addi	r4,r4,8224
  100e8c:	000b883a 	mov	r5,zero
  100e90:	888000c5 	stb	r2,3(r17)
  100e94:	d8000015 	stw	zero,0(sp)
  100e98:	d8000115 	stw	zero,4(sp)
  100e9c:	d8000215 	stw	zero,8(sp)
  100ea0:	01800104 	movi	r6,4
  100ea4:	d1e01644 	addi	r7,gp,-32679
  100ea8:	d5a01645 	stb	r22,-32679(gp)
  100eac:	01018740 	call	101874 <alt_avalon_spi_command>
  100eb0:	d8800315 	stw	r2,12(sp)
  100eb4:	d0a01503 	ldbu	r2,-32684(gp)
  100eb8:	d0201605 	stb	zero,-32680(gp)
  100ebc:	10800044 	addi	r2,r2,1
  100ec0:	d0a01505 	stb	r2,-32684(gp)
  100ec4:	003fe706 	br	100e64 <_gp+0xffef869c>
  100ec8:	d0201605 	stb	zero,-32680(gp)
  100ecc:	054000c4 	movi	r21,3
  100ed0:	05800084 	movi	r22,2
  100ed4:	8d400045 	stb	r21,1(r17)
  100ed8:	01000834 	movhi	r4,32
  100edc:	dd800015 	stw	r22,0(sp)
  100ee0:	dc400115 	stw	r17,4(sp)
  100ee4:	d8000215 	stw	zero,8(sp)
  100ee8:	21080804 	addi	r4,r4,8224
  100eec:	000b883a 	mov	r5,zero
  100ef0:	01800084 	movi	r6,2
  100ef4:	d1e01644 	addi	r7,gp,-32679
  100ef8:	d0201645 	stb	zero,-32679(gp)
  100efc:	01018740 	call	101874 <alt_avalon_spi_command>
  100f00:	d8800315 	stw	r2,12(sp)
  100f04:	88800043 	ldbu	r2,1(r17)
  100f08:	1080004c 	andi	r2,r2,1
  100f0c:	1000061e 	bne	r2,zero,100f28 <main+0x920>
  100f10:	d0a01603 	ldbu	r2,-32680(gp)
  100f14:	01000784 	movi	r4,30
  100f18:	10800044 	addi	r2,r2,1
  100f1c:	d0a01605 	stb	r2,-32680(gp)
  100f20:	01017780 	call	101778 <usleep>
  100f24:	003feb06 	br	100ed4 <_gp+0xffef870c>
  100f28:	d0e01a17 	ldw	r3,-32664(gp)
  100f2c:	00803fc4 	movi	r2,255
  100f30:	1880211e 	bne	r3,r2,100fb8 <main+0x9b0>
  100f34:	d0201605 	stb	zero,-32680(gp)
  100f38:	05400744 	movi	r21,29
  100f3c:	058000c4 	movi	r22,3
  100f40:	d0a01603 	ldbu	r2,-32680(gp)
  100f44:	a8800f36 	bltu	r21,r2,100f84 <main+0x97c>
  100f48:	8d800045 	stb	r22,1(r17)
  100f4c:	01800084 	movi	r6,2
  100f50:	01000834 	movhi	r4,32
  100f54:	d9800015 	stw	r6,0(sp)
  100f58:	dc400115 	stw	r17,4(sp)
  100f5c:	d8000215 	stw	zero,8(sp)
  100f60:	21080804 	addi	r4,r4,8224
  100f64:	000b883a 	mov	r5,zero
  100f68:	d1e01644 	addi	r7,gp,-32679
  100f6c:	d0201645 	stb	zero,-32679(gp)
  100f70:	01018740 	call	101874 <alt_avalon_spi_command>
  100f74:	d8800315 	stw	r2,12(sp)
  100f78:	88800043 	ldbu	r2,1(r17)
  100f7c:	1080100c 	andi	r2,r2,64
  100f80:	10000726 	beq	r2,zero,100fa0 <main+0x998>
  100f84:	d0e01603 	ldbu	r3,-32680(gp)
  100f88:	00800784 	movi	r2,30
  100f8c:	18800a1e 	bne	r3,r2,100fb8 <main+0x9b0>
  100f90:	d0a01b43 	ldbu	r2,-32659(gp)
  100f94:	10800044 	addi	r2,r2,1
  100f98:	d0a01b45 	stb	r2,-32659(gp)
  100f9c:	00000606 	br	100fb8 <main+0x9b0>
  100fa0:	d0a01603 	ldbu	r2,-32680(gp)
  100fa4:	01000784 	movi	r4,30
  100fa8:	10800044 	addi	r2,r2,1
  100fac:	d0a01605 	stb	r2,-32680(gp)
  100fb0:	01017780 	call	101778 <usleep>
  100fb4:	003fe206 	br	100f40 <_gp+0xffef8778>
  100fb8:	d0a01a17 	ldw	r2,-32664(gp)
  100fbc:	d0a01915 	stw	r2,-32668(gp)
  100fc0:	d0e01b43 	ldbu	r3,-32659(gp)
  100fc4:	d0a00317 	ldw	r2,-32756(gp)
  100fc8:	18000226 	beq	r3,zero,100fd4 <main+0x9cc>
  100fcc:	00c00144 	movi	r3,5
  100fd0:	003e0006 	br	1007d4 <_gp+0xffef800c>
  100fd4:	00c00044 	movi	r3,1
  100fd8:	003dfe06 	br	1007d4 <_gp+0xffef800c>
  100fdc:	00c00084 	movi	r3,2
  100fe0:	003dfc06 	br	1007d4 <_gp+0xffef800c>
  100fe4:	118b883a 	add	r5,r2,r6
  100fe8:	29400003 	ldbu	r5,0(r5)
  100fec:	21400035 	stwio	r5,0(r4)
  100ff0:	10800044 	addi	r2,r2,1
  100ff4:	10fffb1e 	bne	r2,r3,100fe4 <_gp+0xffef881c>
  100ff8:	003db006 	br	1006bc <_gp+0xffef7ef4>

00100ffc <ReverseBitOrder>:
  100ffc:	21003fcc 	andi	r4,r4,255
  101000:	2105883a 	add	r2,r4,r4
  101004:	2008d07a 	srli	r4,r4,1
  101008:	10802a8c 	andi	r2,r2,170
  10100c:	2100154c 	andi	r4,r4,85
  101010:	1108b03a 	or	r4,r2,r4
  101014:	2105883a 	add	r2,r4,r4
  101018:	2008d0ba 	srli	r4,r4,2
  10101c:	1085883a 	add	r2,r2,r2
  101020:	20c00ccc 	andi	r3,r4,51
  101024:	1100330c 	andi	r4,r2,204
  101028:	20c8b03a 	or	r4,r4,r3
  10102c:	2004913a 	slli	r2,r4,4
  101030:	2008d13a 	srli	r4,r4,4
  101034:	1104b03a 	or	r2,r2,r4
  101038:	f800283a 	ret

0010103c <FlashSpiFastRead>:
  10103c:	d1201d05 	stb	r4,-32652(gp)
  101040:	f800283a 	ret

00101044 <CyFxSpiWaitForStatus>:
  101044:	defff504 	addi	sp,sp,-44
  101048:	dd400915 	stw	r21,36(sp)
  10104c:	dd000815 	stw	r20,32(sp)
  101050:	dcc00715 	stw	r19,28(sp)
  101054:	dc800615 	stw	r18,24(sp)
  101058:	dc400515 	stw	r17,20(sp)
  10105c:	dc000415 	stw	r16,16(sp)
  101060:	dfc00a15 	stw	ra,40(sp)
  101064:	2023883a 	mov	r17,r4
  101068:	2825883a 	mov	r18,r5
  10106c:	0409c444 	movi	r16,10001
  101070:	04c01804 	movi	r19,96
  101074:	053fe804 	movi	r20,-96
  101078:	05400084 	movi	r21,2
  10107c:	8809883a 	mov	r4,r17
  101080:	900b883a 	mov	r5,r18
  101084:	01800044 	movi	r6,1
  101088:	d9c00384 	addi	r7,sp,14
  10108c:	d8000015 	stw	zero,0(sp)
  101090:	d8000115 	stw	zero,4(sp)
  101094:	d8000215 	stw	zero,8(sp)
  101098:	dcc00385 	stb	r19,14(sp)
  10109c:	01018740 	call	101874 <alt_avalon_spi_command>
  1010a0:	d8800304 	addi	r2,sp,12
  1010a4:	dd400015 	stw	r21,0(sp)
  1010a8:	d8800115 	stw	r2,4(sp)
  1010ac:	d8000215 	stw	zero,8(sp)
  1010b0:	8809883a 	mov	r4,r17
  1010b4:	900b883a 	mov	r5,r18
  1010b8:	01800044 	movi	r6,1
  1010bc:	d9c00384 	addi	r7,sp,14
  1010c0:	843fffc4 	addi	r16,r16,-1
  1010c4:	dd000385 	stb	r20,14(sp)
  1010c8:	01018740 	call	101874 <alt_avalon_spi_command>
  1010cc:	80000926 	beq	r16,zero,1010f4 <CyFxSpiWaitForStatus+0xb0>
  1010d0:	d8800303 	ldbu	r2,12(sp)
  1010d4:	10c03fcc 	andi	r3,r2,255
  1010d8:	18c0201c 	xori	r3,r3,128
  1010dc:	18ffe004 	addi	r3,r3,-128
  1010e0:	183fe616 	blt	r3,zero,10107c <_gp+0xffef88b4>
  1010e4:	1080100c 	andi	r2,r2,64
  1010e8:	103fe426 	beq	r2,zero,10107c <_gp+0xffef88b4>
  1010ec:	0005883a 	mov	r2,zero
  1010f0:	00000106 	br	1010f8 <CyFxSpiWaitForStatus+0xb4>
  1010f4:	00800044 	movi	r2,1
  1010f8:	dfc00a17 	ldw	ra,40(sp)
  1010fc:	dd400917 	ldw	r21,36(sp)
  101100:	dd000817 	ldw	r20,32(sp)
  101104:	dcc00717 	ldw	r19,28(sp)
  101108:	dc800617 	ldw	r18,24(sp)
  10110c:	dc400517 	ldw	r17,20(sp)
  101110:	dc000417 	ldw	r16,16(sp)
  101114:	dec00b04 	addi	sp,sp,44
  101118:	f800283a 	ret

0010111c <FlashSpiTransfer>:
  10111c:	defff104 	addi	sp,sp,-60
  101120:	00c00044 	movi	r3,1
  101124:	dc000515 	stw	r16,20(sp)
  101128:	dfc00e15 	stw	ra,56(sp)
  10112c:	df000d15 	stw	fp,52(sp)
  101130:	ddc00c15 	stw	r23,48(sp)
  101134:	dd800b15 	stw	r22,44(sp)
  101138:	dd400a15 	stw	r21,40(sp)
  10113c:	dd000915 	stw	r20,36(sp)
  101140:	dcc00815 	stw	r19,32(sp)
  101144:	dc800715 	stw	r18,28(sp)
  101148:	dc400615 	stw	r17,24(sp)
  10114c:	d0e01d05 	stb	r3,-32652(gp)
  101150:	3c3fffcc 	andi	r16,r7,65535
  101154:	8000021e 	bne	r16,zero,101160 <FlashSpiTransfer+0x44>
  101158:	0005883a 	mov	r2,zero
  10115c:	00004b06 	br	10128c <FlashSpiTransfer+0x170>
  101160:	39c03fcc 	andi	r7,r7,255
  101164:	3800461e 	bne	r7,zero,101280 <FlashSpiTransfer+0x164>
  101168:	300c923a 	slli	r6,r6,8
  10116c:	dc400f17 	ldw	r17,60(sp)
  101170:	8020d23a 	srli	r16,r16,8
  101174:	2027883a 	mov	r19,r4
  101178:	2829883a 	mov	r20,r5
  10117c:	002b883a 	mov	r21,zero
  101180:	3465c83a 	sub	r18,r6,r17
  101184:	05801004 	movi	r22,64
  101188:	05c00044 	movi	r23,1
  10118c:	073ff004 	movi	fp,-64
  101190:	80bfffcc 	andi	r2,r16,65535
  101194:	8c8b883a 	add	r5,r17,r18
  101198:	10003b26 	beq	r2,zero,101288 <FlashSpiTransfer+0x16c>
  10119c:	2808d43a 	srli	r4,r5,16
  1011a0:	d9400415 	stw	r5,16(sp)
  1011a4:	21003fcc 	andi	r4,r4,255
  1011a8:	0100ffc0 	call	100ffc <ReverseBitOrder>
  1011ac:	d9400417 	ldw	r5,16(sp)
  1011b0:	d8800345 	stb	r2,13(sp)
  1011b4:	2808d23a 	srli	r4,r5,8
  1011b8:	21003fcc 	andi	r4,r4,255
  1011bc:	0100ffc0 	call	100ffc <ReverseBitOrder>
  1011c0:	d8800385 	stb	r2,14(sp)
  1011c4:	d8801017 	ldw	r2,64(sp)
  1011c8:	d80003c5 	stb	zero,15(sp)
  1011cc:	10001226 	beq	r2,zero,101218 <FlashSpiTransfer+0xfc>
  1011d0:	d0a01d07 	ldb	r2,-32652(gp)
  1011d4:	df000305 	stb	fp,12(sp)
  1011d8:	1000061e 	bne	r2,zero,1011f4 <FlashSpiTransfer+0xd8>
  1011dc:	9809883a 	mov	r4,r19
  1011e0:	a00b883a 	mov	r5,r20
  1011e4:	01010440 	call	101044 <CyFxSpiWaitForStatus>
  1011e8:	102b883a 	mov	r21,r2
  1011ec:	10803fcc 	andi	r2,r2,255
  1011f0:	103fd926 	beq	r2,zero,101158 <_gp+0xffef8990>
  1011f4:	00804004 	movi	r2,256
  1011f8:	d8800015 	stw	r2,0(sp)
  1011fc:	dc400115 	stw	r17,4(sp)
  101200:	d8000215 	stw	zero,8(sp)
  101204:	9809883a 	mov	r4,r19
  101208:	a00b883a 	mov	r5,r20
  10120c:	01800104 	movi	r6,4
  101210:	d9c00304 	addi	r7,sp,12
  101214:	00001606 	br	101270 <FlashSpiTransfer+0x154>
  101218:	9809883a 	mov	r4,r19
  10121c:	a00b883a 	mov	r5,r20
  101220:	dd800305 	stb	r22,12(sp)
  101224:	01010440 	call	101044 <CyFxSpiWaitForStatus>
  101228:	102b883a 	mov	r21,r2
  10122c:	10803fcc 	andi	r2,r2,255
  101230:	1000151e 	bne	r2,zero,101288 <FlashSpiTransfer+0x16c>
  101234:	9809883a 	mov	r4,r19
  101238:	a00b883a 	mov	r5,r20
  10123c:	01800104 	movi	r6,4
  101240:	d9c00304 	addi	r7,sp,12
  101244:	d8000015 	stw	zero,0(sp)
  101248:	d8000115 	stw	zero,4(sp)
  10124c:	ddc00215 	stw	r23,8(sp)
  101250:	01018740 	call	101874 <alt_avalon_spi_command>
  101254:	9809883a 	mov	r4,r19
  101258:	d8000015 	stw	zero,0(sp)
  10125c:	d8000115 	stw	zero,4(sp)
  101260:	d8000215 	stw	zero,8(sp)
  101264:	a00b883a 	mov	r5,r20
  101268:	01804004 	movi	r6,256
  10126c:	880f883a 	mov	r7,r17
  101270:	01018740 	call	101874 <alt_avalon_spi_command>
  101274:	8c404004 	addi	r17,r17,256
  101278:	843fffc4 	addi	r16,r16,-1
  10127c:	003fc406 	br	101190 <_gp+0xffef89c8>
  101280:	1805883a 	mov	r2,r3
  101284:	00000106 	br	10128c <FlashSpiTransfer+0x170>
  101288:	a805883a 	mov	r2,r21
  10128c:	dfc00e17 	ldw	ra,56(sp)
  101290:	df000d17 	ldw	fp,52(sp)
  101294:	ddc00c17 	ldw	r23,48(sp)
  101298:	dd800b17 	ldw	r22,44(sp)
  10129c:	dd400a17 	ldw	r21,40(sp)
  1012a0:	dd000917 	ldw	r20,36(sp)
  1012a4:	dcc00817 	ldw	r19,32(sp)
  1012a8:	dc800717 	ldw	r18,28(sp)
  1012ac:	dc400617 	ldw	r17,24(sp)
  1012b0:	dc000517 	ldw	r16,20(sp)
  1012b4:	dec00f04 	addi	sp,sp,60
  1012b8:	f800283a 	ret

001012bc <FlashSpiEraseSector>:
  1012bc:	defff504 	addi	sp,sp,-44
  1012c0:	dc000515 	stw	r16,20(sp)
  1012c4:	3021883a 	mov	r16,r6
  1012c8:	dcc00815 	stw	r19,32(sp)
  1012cc:	00801804 	movi	r2,96
  1012d0:	3827883a 	mov	r19,r7
  1012d4:	d8000015 	stw	zero,0(sp)
  1012d8:	d8000115 	stw	zero,4(sp)
  1012dc:	d8000215 	stw	zero,8(sp)
  1012e0:	01800044 	movi	r6,1
  1012e4:	d9c00304 	addi	r7,sp,12
  1012e8:	84003fcc 	andi	r16,r16,255
  1012ec:	dc800715 	stw	r18,28(sp)
  1012f0:	dc400615 	stw	r17,24(sp)
  1012f4:	dfc00a15 	stw	ra,40(sp)
  1012f8:	dd000915 	stw	r20,36(sp)
  1012fc:	2023883a 	mov	r17,r4
  101300:	2825883a 	mov	r18,r5
  101304:	d8800305 	stb	r2,12(sp)
  101308:	01018740 	call	101874 <alt_avalon_spi_command>
  10130c:	80000f26 	beq	r16,zero,10134c <FlashSpiEraseSector+0x90>
  101310:	008006c4 	movi	r2,27
  101314:	99003fcc 	andi	r4,r19,255
  101318:	d8800305 	stb	r2,12(sp)
  10131c:	0100ffc0 	call	100ffc <ReverseBitOrder>
  101320:	8809883a 	mov	r4,r17
  101324:	d8000015 	stw	zero,0(sp)
  101328:	d8000115 	stw	zero,4(sp)
  10132c:	d8000215 	stw	zero,8(sp)
  101330:	900b883a 	mov	r5,r18
  101334:	01800104 	movi	r6,4
  101338:	d9c00304 	addi	r7,sp,12
  10133c:	d8800345 	stb	r2,13(sp)
  101340:	d8000385 	stb	zero,14(sp)
  101344:	d80003c5 	stb	zero,15(sp)
  101348:	01018740 	call	101874 <alt_avalon_spi_command>
  10134c:	00bfe804 	movi	r2,-96
  101350:	04000bb4 	movhi	r16,46
  101354:	d8800305 	stb	r2,12(sp)
  101358:	8431b044 	addi	r16,r16,-14655
  10135c:	04c00044 	movi	r19,1
  101360:	dd000404 	addi	r20,sp,16
  101364:	dcc00015 	stw	r19,0(sp)
  101368:	dd000115 	stw	r20,4(sp)
  10136c:	d8000215 	stw	zero,8(sp)
  101370:	8809883a 	mov	r4,r17
  101374:	900b883a 	mov	r5,r18
  101378:	01800044 	movi	r6,1
  10137c:	d9c00304 	addi	r7,sp,12
  101380:	843fffc4 	addi	r16,r16,-1
  101384:	01018740 	call	101874 <alt_avalon_spi_command>
  101388:	80000426 	beq	r16,zero,10139c <FlashSpiEraseSector+0xe0>
  10138c:	d8800407 	ldb	r2,16(sp)
  101390:	103ff416 	blt	r2,zero,101364 <_gp+0xffef8b9c>
  101394:	0005883a 	mov	r2,zero
  101398:	00000106 	br	1013a0 <FlashSpiEraseSector+0xe4>
  10139c:	00800044 	movi	r2,1
  1013a0:	dfc00a17 	ldw	ra,40(sp)
  1013a4:	dd000917 	ldw	r20,36(sp)
  1013a8:	dcc00817 	ldw	r19,32(sp)
  1013ac:	dc800717 	ldw	r18,28(sp)
  1013b0:	dc400617 	ldw	r17,24(sp)
  1013b4:	dc000517 	ldw	r16,20(sp)
  1013b8:	dec00b04 	addi	sp,sp,44
  1013bc:	f800283a 	ret

001013c0 <udivmodsi4>:
  1013c0:	2900182e 	bgeu	r5,r4,101424 <udivmodsi4+0x64>
  1013c4:	28001716 	blt	r5,zero,101424 <udivmodsi4+0x64>
  1013c8:	00800804 	movi	r2,32
  1013cc:	00c00044 	movi	r3,1
  1013d0:	00000206 	br	1013dc <udivmodsi4+0x1c>
  1013d4:	10001126 	beq	r2,zero,10141c <udivmodsi4+0x5c>
  1013d8:	28000516 	blt	r5,zero,1013f0 <udivmodsi4+0x30>
  1013dc:	294b883a 	add	r5,r5,r5
  1013e0:	10bfffc4 	addi	r2,r2,-1
  1013e4:	18c7883a 	add	r3,r3,r3
  1013e8:	293ffa36 	bltu	r5,r4,1013d4 <_gp+0xffef8c0c>
  1013ec:	18000b26 	beq	r3,zero,10141c <udivmodsi4+0x5c>
  1013f0:	0005883a 	mov	r2,zero
  1013f4:	21400236 	bltu	r4,r5,101400 <udivmodsi4+0x40>
  1013f8:	2149c83a 	sub	r4,r4,r5
  1013fc:	10c4b03a 	or	r2,r2,r3
  101400:	1806d07a 	srli	r3,r3,1
  101404:	280ad07a 	srli	r5,r5,1
  101408:	183ffa1e 	bne	r3,zero,1013f4 <_gp+0xffef8c2c>
  10140c:	3000011e 	bne	r6,zero,101414 <udivmodsi4+0x54>
  101410:	f800283a 	ret
  101414:	2005883a 	mov	r2,r4
  101418:	f800283a 	ret
  10141c:	0005883a 	mov	r2,zero
  101420:	003ffa06 	br	10140c <_gp+0xffef8c44>
  101424:	00c00044 	movi	r3,1
  101428:	003ff106 	br	1013f0 <_gp+0xffef8c28>

0010142c <__divsi3>:
  10142c:	defffe04 	addi	sp,sp,-8
  101430:	dfc00115 	stw	ra,4(sp)
  101434:	dc000015 	stw	r16,0(sp)
  101438:	20000b16 	blt	r4,zero,101468 <__divsi3+0x3c>
  10143c:	0021883a 	mov	r16,zero
  101440:	28000c16 	blt	r5,zero,101474 <__divsi3+0x48>
  101444:	000d883a 	mov	r6,zero
  101448:	01013c00 	call	1013c0 <udivmodsi4>
  10144c:	0407c83a 	sub	r3,zero,r16
  101450:	1884f03a 	xor	r2,r3,r2
  101454:	1405883a 	add	r2,r2,r16
  101458:	dfc00117 	ldw	ra,4(sp)
  10145c:	dc000017 	ldw	r16,0(sp)
  101460:	dec00204 	addi	sp,sp,8
  101464:	f800283a 	ret
  101468:	0109c83a 	sub	r4,zero,r4
  10146c:	04000044 	movi	r16,1
  101470:	283ff40e 	bge	r5,zero,101444 <_gp+0xffef8c7c>
  101474:	014bc83a 	sub	r5,zero,r5
  101478:	8400005c 	xori	r16,r16,1
  10147c:	003ff106 	br	101444 <_gp+0xffef8c7c>

00101480 <__modsi3>:
  101480:	defffd04 	addi	sp,sp,-12
  101484:	dfc00215 	stw	ra,8(sp)
  101488:	dc400115 	stw	r17,4(sp)
  10148c:	dc000015 	stw	r16,0(sp)
  101490:	20000c16 	blt	r4,zero,1014c4 <__modsi3+0x44>
  101494:	0023883a 	mov	r17,zero
  101498:	0021883a 	mov	r16,zero
  10149c:	28000d16 	blt	r5,zero,1014d4 <__modsi3+0x54>
  1014a0:	01800044 	movi	r6,1
  1014a4:	01013c00 	call	1013c0 <udivmodsi4>
  1014a8:	1404f03a 	xor	r2,r2,r16
  1014ac:	8885883a 	add	r2,r17,r2
  1014b0:	dfc00217 	ldw	ra,8(sp)
  1014b4:	dc400117 	ldw	r17,4(sp)
  1014b8:	dc000017 	ldw	r16,0(sp)
  1014bc:	dec00304 	addi	sp,sp,12
  1014c0:	f800283a 	ret
  1014c4:	0109c83a 	sub	r4,zero,r4
  1014c8:	04400044 	movi	r17,1
  1014cc:	043fffc4 	movi	r16,-1
  1014d0:	283ff30e 	bge	r5,zero,1014a0 <_gp+0xffef8cd8>
  1014d4:	014bc83a 	sub	r5,zero,r5
  1014d8:	003ff106 	br	1014a0 <_gp+0xffef8cd8>

001014dc <__udivsi3>:
  1014dc:	000d883a 	mov	r6,zero
  1014e0:	01013c01 	jmpi	1013c0 <udivmodsi4>

001014e4 <__umodsi3>:
  1014e4:	01800044 	movi	r6,1
  1014e8:	01013c01 	jmpi	1013c0 <udivmodsi4>

001014ec <__mulsi3>:
  1014ec:	0005883a 	mov	r2,zero
  1014f0:	20000726 	beq	r4,zero,101510 <__mulsi3+0x24>
  1014f4:	20c0004c 	andi	r3,r4,1
  1014f8:	2008d07a 	srli	r4,r4,1
  1014fc:	18000126 	beq	r3,zero,101504 <__mulsi3+0x18>
  101500:	1145883a 	add	r2,r2,r5
  101504:	294b883a 	add	r5,r5,r5
  101508:	203ffa1e 	bne	r4,zero,1014f4 <_gp+0xffef8d2c>
  10150c:	f800283a 	ret
  101510:	f800283a 	ret

00101514 <memset>:
  101514:	20c000cc 	andi	r3,r4,3
  101518:	2005883a 	mov	r2,r4
  10151c:	18004326 	beq	r3,zero,10162c <memset+0x118>
  101520:	31ffffc4 	addi	r7,r6,-1
  101524:	30004026 	beq	r6,zero,101628 <memset+0x114>
  101528:	2813883a 	mov	r9,r5
  10152c:	200d883a 	mov	r6,r4
  101530:	2007883a 	mov	r3,r4
  101534:	00000406 	br	101548 <memset+0x34>
  101538:	3a3fffc4 	addi	r8,r7,-1
  10153c:	31800044 	addi	r6,r6,1
  101540:	38003926 	beq	r7,zero,101628 <memset+0x114>
  101544:	400f883a 	mov	r7,r8
  101548:	18c00044 	addi	r3,r3,1
  10154c:	32400005 	stb	r9,0(r6)
  101550:	1a0000cc 	andi	r8,r3,3
  101554:	403ff81e 	bne	r8,zero,101538 <_gp+0xffef8d70>
  101558:	010000c4 	movi	r4,3
  10155c:	21c02d2e 	bgeu	r4,r7,101614 <memset+0x100>
  101560:	29803fcc 	andi	r6,r5,255
  101564:	3008923a 	slli	r4,r6,8
  101568:	218cb03a 	or	r6,r4,r6
  10156c:	3008943a 	slli	r4,r6,16
  101570:	218cb03a 	or	r6,r4,r6
  101574:	010003c4 	movi	r4,15
  101578:	21c0182e 	bgeu	r4,r7,1015dc <memset+0xc8>
  10157c:	3b3ffc04 	addi	r12,r7,-16
  101580:	6018d13a 	srli	r12,r12,4
  101584:	1a000104 	addi	r8,r3,4
  101588:	1ac00204 	addi	r11,r3,8
  10158c:	6008913a 	slli	r4,r12,4
  101590:	1a800304 	addi	r10,r3,12
  101594:	1813883a 	mov	r9,r3
  101598:	21000504 	addi	r4,r4,20
  10159c:	1909883a 	add	r4,r3,r4
  1015a0:	49800015 	stw	r6,0(r9)
  1015a4:	41800015 	stw	r6,0(r8)
  1015a8:	59800015 	stw	r6,0(r11)
  1015ac:	51800015 	stw	r6,0(r10)
  1015b0:	42000404 	addi	r8,r8,16
  1015b4:	4a400404 	addi	r9,r9,16
  1015b8:	5ac00404 	addi	r11,r11,16
  1015bc:	52800404 	addi	r10,r10,16
  1015c0:	413ff71e 	bne	r8,r4,1015a0 <_gp+0xffef8dd8>
  1015c4:	63000044 	addi	r12,r12,1
  1015c8:	6018913a 	slli	r12,r12,4
  1015cc:	39c003cc 	andi	r7,r7,15
  1015d0:	010000c4 	movi	r4,3
  1015d4:	1b07883a 	add	r3,r3,r12
  1015d8:	21c00e2e 	bgeu	r4,r7,101614 <memset+0x100>
  1015dc:	1813883a 	mov	r9,r3
  1015e0:	3811883a 	mov	r8,r7
  1015e4:	010000c4 	movi	r4,3
  1015e8:	49800015 	stw	r6,0(r9)
  1015ec:	423fff04 	addi	r8,r8,-4
  1015f0:	4a400104 	addi	r9,r9,4
  1015f4:	223ffc36 	bltu	r4,r8,1015e8 <_gp+0xffef8e20>
  1015f8:	393fff04 	addi	r4,r7,-4
  1015fc:	2008d0ba 	srli	r4,r4,2
  101600:	39c000cc 	andi	r7,r7,3
  101604:	21000044 	addi	r4,r4,1
  101608:	2109883a 	add	r4,r4,r4
  10160c:	2109883a 	add	r4,r4,r4
  101610:	1907883a 	add	r3,r3,r4
  101614:	38000426 	beq	r7,zero,101628 <memset+0x114>
  101618:	19cf883a 	add	r7,r3,r7
  10161c:	19400005 	stb	r5,0(r3)
  101620:	18c00044 	addi	r3,r3,1
  101624:	19fffd1e 	bne	r3,r7,10161c <_gp+0xffef8e54>
  101628:	f800283a 	ret
  10162c:	2007883a 	mov	r3,r4
  101630:	300f883a 	mov	r7,r6
  101634:	003fc806 	br	101558 <_gp+0xffef8d90>

00101638 <alt_load_section>:
  101638:	defffc04 	addi	sp,sp,-16
  10163c:	df000315 	stw	fp,12(sp)
  101640:	df000304 	addi	fp,sp,12
  101644:	e13ffd15 	stw	r4,-12(fp)
  101648:	e17ffe15 	stw	r5,-8(fp)
  10164c:	e1bfff15 	stw	r6,-4(fp)
  101650:	e0fffe17 	ldw	r3,-8(fp)
  101654:	e0bffd17 	ldw	r2,-12(fp)
  101658:	18800c26 	beq	r3,r2,10168c <alt_load_section+0x54>
  10165c:	00000806 	br	101680 <alt_load_section+0x48>
  101660:	e0bffe17 	ldw	r2,-8(fp)
  101664:	10c00104 	addi	r3,r2,4
  101668:	e0fffe15 	stw	r3,-8(fp)
  10166c:	e0fffd17 	ldw	r3,-12(fp)
  101670:	19000104 	addi	r4,r3,4
  101674:	e13ffd15 	stw	r4,-12(fp)
  101678:	18c00017 	ldw	r3,0(r3)
  10167c:	10c00015 	stw	r3,0(r2)
  101680:	e0fffe17 	ldw	r3,-8(fp)
  101684:	e0bfff17 	ldw	r2,-4(fp)
  101688:	18bff51e 	bne	r3,r2,101660 <_gp+0xffef8e98>
  10168c:	e037883a 	mov	sp,fp
  101690:	df000017 	ldw	fp,0(sp)
  101694:	dec00104 	addi	sp,sp,4
  101698:	f800283a 	ret

0010169c <alt_load>:
  10169c:	defffe04 	addi	sp,sp,-8
  1016a0:	dfc00115 	stw	ra,4(sp)
  1016a4:	df000015 	stw	fp,0(sp)
  1016a8:	d839883a 	mov	fp,sp
  1016ac:	01000434 	movhi	r4,16
  1016b0:	21109204 	addi	r4,r4,16968
  1016b4:	01400834 	movhi	r5,32
  1016b8:	29400e04 	addi	r5,r5,56
  1016bc:	01800834 	movhi	r6,32
  1016c0:	31820304 	addi	r6,r6,2060
  1016c4:	01016380 	call	101638 <alt_load_section>
  1016c8:	01000434 	movhi	r4,16
  1016cc:	21000804 	addi	r4,r4,32
  1016d0:	01400434 	movhi	r5,16
  1016d4:	29400804 	addi	r5,r5,32
  1016d8:	01800434 	movhi	r6,16
  1016dc:	31808b04 	addi	r6,r6,556
  1016e0:	01016380 	call	101638 <alt_load_section>
  1016e4:	01000434 	movhi	r4,16
  1016e8:	21108404 	addi	r4,r4,16912
  1016ec:	01400834 	movhi	r5,32
  1016f0:	29400004 	addi	r5,r5,0
  1016f4:	01800834 	movhi	r6,32
  1016f8:	31800e04 	addi	r6,r6,56
  1016fc:	01016380 	call	101638 <alt_load_section>
  101700:	01035380 	call	103538 <alt_dcache_flush_all>
  101704:	01037e40 	call	1037e4 <alt_icache_flush_all>
  101708:	e037883a 	mov	sp,fp
  10170c:	dfc00117 	ldw	ra,4(sp)
  101710:	df000017 	ldw	fp,0(sp)
  101714:	dec00204 	addi	sp,sp,8
  101718:	f800283a 	ret

0010171c <alt_main>:
  10171c:	defffd04 	addi	sp,sp,-12
  101720:	dfc00215 	stw	ra,8(sp)
  101724:	df000115 	stw	fp,4(sp)
  101728:	df000104 	addi	fp,sp,4
  10172c:	0009883a 	mov	r4,zero
  101730:	01017e00 	call	1017e0 <alt_irq_init>
  101734:	0001883a 	nop
  101738:	01018140 	call	101814 <alt_sys_init>
  10173c:	01036740 	call	103674 <_do_ctors>
  101740:	01000434 	movhi	r4,16
  101744:	210db404 	addi	r4,r4,14032
  101748:	0103c9c0 	call	103c9c <atexit>
  10174c:	d1201e17 	ldw	r4,-32648(gp)
  101750:	d0e01f17 	ldw	r3,-32644(gp)
  101754:	d0a02017 	ldw	r2,-32640(gp)
  101758:	180b883a 	mov	r5,r3
  10175c:	100d883a 	mov	r6,r2
  101760:	01006080 	call	100608 <main>
  101764:	e0bfff15 	stw	r2,-4(fp)
  101768:	01000044 	movi	r4,1
  10176c:	010343c0 	call	10343c <close>
  101770:	e13fff17 	ldw	r4,-4(fp)
  101774:	0103cb00 	call	103cb0 <exit>

00101778 <usleep>:
  101778:	defffd04 	addi	sp,sp,-12
  10177c:	dfc00215 	stw	ra,8(sp)
  101780:	df000115 	stw	fp,4(sp)
  101784:	df000104 	addi	fp,sp,4
  101788:	e13fff15 	stw	r4,-4(fp)
  10178c:	e13fff17 	ldw	r4,-4(fp)
  101790:	01032940 	call	103294 <alt_busy_sleep>
  101794:	e037883a 	mov	sp,fp
  101798:	dfc00117 	ldw	ra,4(sp)
  10179c:	df000017 	ldw	fp,0(sp)
  1017a0:	dec00204 	addi	sp,sp,8
  1017a4:	f800283a 	ret

001017a8 <alt_dev_reg>:
  1017a8:	defffd04 	addi	sp,sp,-12
  1017ac:	dfc00215 	stw	ra,8(sp)
  1017b0:	df000115 	stw	fp,4(sp)
  1017b4:	df000104 	addi	fp,sp,4
  1017b8:	e13fff15 	stw	r4,-4(fp)
  1017bc:	e13fff17 	ldw	r4,-4(fp)
  1017c0:	01400834 	movhi	r5,32
  1017c4:	2941fa04 	addi	r5,r5,2024
  1017c8:	01035d00 	call	1035d0 <alt_dev_llist_insert>
  1017cc:	e037883a 	mov	sp,fp
  1017d0:	dfc00117 	ldw	ra,4(sp)
  1017d4:	df000017 	ldw	fp,0(sp)
  1017d8:	dec00204 	addi	sp,sp,8
  1017dc:	f800283a 	ret

001017e0 <alt_irq_init>:
  1017e0:	defffd04 	addi	sp,sp,-12
  1017e4:	dfc00215 	stw	ra,8(sp)
  1017e8:	df000115 	stw	fp,4(sp)
  1017ec:	df000104 	addi	fp,sp,4
  1017f0:	e13fff15 	stw	r4,-4(fp)
  1017f4:	0103b500 	call	103b50 <altera_nios2_gen2_irq_init>
  1017f8:	00800044 	movi	r2,1
  1017fc:	1001703a 	wrctl	status,r2
  101800:	e037883a 	mov	sp,fp
  101804:	dfc00117 	ldw	ra,4(sp)
  101808:	df000017 	ldw	fp,0(sp)
  10180c:	dec00204 	addi	sp,sp,8
  101810:	f800283a 	ret

00101814 <alt_sys_init>:
  101814:	defffe04 	addi	sp,sp,-8
  101818:	dfc00115 	stw	ra,4(sp)
  10181c:	df000015 	stw	fp,0(sp)
  101820:	d839883a 	mov	fp,sp
  101824:	0001883a 	nop
  101828:	0001883a 	nop
  10182c:	0001883a 	nop
  101830:	01000834 	movhi	r4,32
  101834:	21001804 	addi	r4,r4,96
  101838:	000b883a 	mov	r5,zero
  10183c:	01800044 	movi	r6,1
  101840:	0101b880 	call	101b88 <altera_avalon_uart_init>
  101844:	01000834 	movhi	r4,32
  101848:	21000e04 	addi	r4,r4,56
  10184c:	01017a80 	call	1017a8 <alt_dev_reg>
  101850:	01000834 	movhi	r4,32
  101854:	21003f04 	addi	r4,r4,252
  101858:	0102c0c0 	call	102c0c <altera_onchip_flash_init>
  10185c:	0001883a 	nop
  101860:	e037883a 	mov	sp,fp
  101864:	dfc00117 	ldw	ra,4(sp)
  101868:	df000017 	ldw	fp,0(sp)
  10186c:	dec00204 	addi	sp,sp,8
  101870:	f800283a 	ret

00101874 <alt_avalon_spi_command>:
  101874:	defff404 	addi	sp,sp,-48
  101878:	df000b15 	stw	fp,44(sp)
  10187c:	df000b04 	addi	fp,sp,44
  101880:	e13ffc15 	stw	r4,-16(fp)
  101884:	e17ffd15 	stw	r5,-12(fp)
  101888:	e1bffe15 	stw	r6,-8(fp)
  10188c:	e1ffff15 	stw	r7,-4(fp)
  101890:	e0ffff17 	ldw	r3,-4(fp)
  101894:	e0bffe17 	ldw	r2,-8(fp)
  101898:	1885883a 	add	r2,r3,r2
  10189c:	e0bff815 	stw	r2,-32(fp)
  1018a0:	e0c00217 	ldw	r3,8(fp)
  1018a4:	e0800117 	ldw	r2,4(fp)
  1018a8:	1885883a 	add	r2,r3,r2
  1018ac:	e0bff915 	stw	r2,-28(fp)
  1018b0:	e0800117 	ldw	r2,4(fp)
  1018b4:	e0bff515 	stw	r2,-44(fp)
  1018b8:	e0bffe17 	ldw	r2,-8(fp)
  1018bc:	e0bff615 	stw	r2,-40(fp)
  1018c0:	00800044 	movi	r2,1
  1018c4:	e0bff715 	stw	r2,-36(fp)
  1018c8:	e0bffc17 	ldw	r2,-16(fp)
  1018cc:	10800504 	addi	r2,r2,20
  1018d0:	1009883a 	mov	r4,r2
  1018d4:	e0bffd17 	ldw	r2,-12(fp)
  1018d8:	00c00044 	movi	r3,1
  1018dc:	1884983a 	sll	r2,r3,r2
  1018e0:	20800035 	stwio	r2,0(r4)
  1018e4:	e0800317 	ldw	r2,12(fp)
  1018e8:	1080008c 	andi	r2,r2,2
  1018ec:	1000051e 	bne	r2,zero,101904 <alt_avalon_spi_command+0x90>
  1018f0:	e0bffc17 	ldw	r2,-16(fp)
  1018f4:	10800304 	addi	r2,r2,12
  1018f8:	1007883a 	mov	r3,r2
  1018fc:	00810004 	movi	r2,1024
  101900:	18800035 	stwio	r2,0(r3)
  101904:	e0bffc17 	ldw	r2,-16(fp)
  101908:	10800037 	ldwio	r2,0(r2)
  10190c:	e0bffc17 	ldw	r2,-16(fp)
  101910:	10800204 	addi	r2,r2,8
  101914:	10800037 	ldwio	r2,0(r2)
  101918:	e0bffa15 	stw	r2,-24(fp)
  10191c:	e0bffa17 	ldw	r2,-24(fp)
  101920:	1080100c 	andi	r2,r2,64
  101924:	10000226 	beq	r2,zero,101930 <alt_avalon_spi_command+0xbc>
  101928:	e0bff717 	ldw	r2,-36(fp)
  10192c:	1000031e 	bne	r2,zero,10193c <alt_avalon_spi_command+0xc8>
  101930:	e0bffa17 	ldw	r2,-24(fp)
  101934:	1080200c 	andi	r2,r2,128
  101938:	103ff426 	beq	r2,zero,10190c <_gp+0xffef9144>
  10193c:	e0bffa17 	ldw	r2,-24(fp)
  101940:	1080100c 	andi	r2,r2,64
  101944:	10001e26 	beq	r2,zero,1019c0 <alt_avalon_spi_command+0x14c>
  101948:	e0bff717 	ldw	r2,-36(fp)
  10194c:	00801c0e 	bge	zero,r2,1019c0 <alt_avalon_spi_command+0x14c>
  101950:	e0bff717 	ldw	r2,-36(fp)
  101954:	10bfffc4 	addi	r2,r2,-1
  101958:	e0bff715 	stw	r2,-36(fp)
  10195c:	e0ffff17 	ldw	r3,-4(fp)
  101960:	e0bff817 	ldw	r2,-32(fp)
  101964:	18800a2e 	bgeu	r3,r2,101990 <alt_avalon_spi_command+0x11c>
  101968:	e0bffc17 	ldw	r2,-16(fp)
  10196c:	10800104 	addi	r2,r2,4
  101970:	1009883a 	mov	r4,r2
  101974:	e0bfff17 	ldw	r2,-4(fp)
  101978:	10c00044 	addi	r3,r2,1
  10197c:	e0ffff15 	stw	r3,-4(fp)
  101980:	10800003 	ldbu	r2,0(r2)
  101984:	10803fcc 	andi	r2,r2,255
  101988:	20800035 	stwio	r2,0(r4)
  10198c:	00000c06 	br	1019c0 <alt_avalon_spi_command+0x14c>
  101990:	e0bff517 	ldw	r2,-44(fp)
  101994:	10000826 	beq	r2,zero,1019b8 <alt_avalon_spi_command+0x144>
  101998:	e0bff517 	ldw	r2,-44(fp)
  10199c:	10bfffc4 	addi	r2,r2,-1
  1019a0:	e0bff515 	stw	r2,-44(fp)
  1019a4:	e0bffc17 	ldw	r2,-16(fp)
  1019a8:	10800104 	addi	r2,r2,4
  1019ac:	0007883a 	mov	r3,zero
  1019b0:	10c00035 	stwio	r3,0(r2)
  1019b4:	00000206 	br	1019c0 <alt_avalon_spi_command+0x14c>
  1019b8:	00bf0004 	movi	r2,-1024
  1019bc:	e0bff715 	stw	r2,-36(fp)
  1019c0:	e0bffa17 	ldw	r2,-24(fp)
  1019c4:	1080200c 	andi	r2,r2,128
  1019c8:	10001726 	beq	r2,zero,101a28 <alt_avalon_spi_command+0x1b4>
  1019cc:	e0bffc17 	ldw	r2,-16(fp)
  1019d0:	10800037 	ldwio	r2,0(r2)
  1019d4:	e0bffb15 	stw	r2,-20(fp)
  1019d8:	e0bff617 	ldw	r2,-40(fp)
  1019dc:	10000426 	beq	r2,zero,1019f0 <alt_avalon_spi_command+0x17c>
  1019e0:	e0bff617 	ldw	r2,-40(fp)
  1019e4:	10bfffc4 	addi	r2,r2,-1
  1019e8:	e0bff615 	stw	r2,-40(fp)
  1019ec:	00000506 	br	101a04 <alt_avalon_spi_command+0x190>
  1019f0:	e0800217 	ldw	r2,8(fp)
  1019f4:	10c00044 	addi	r3,r2,1
  1019f8:	e0c00215 	stw	r3,8(fp)
  1019fc:	e0fffb17 	ldw	r3,-20(fp)
  101a00:	10c00005 	stb	r3,0(r2)
  101a04:	e0bff717 	ldw	r2,-36(fp)
  101a08:	10800044 	addi	r2,r2,1
  101a0c:	e0bff715 	stw	r2,-36(fp)
  101a10:	e0bff617 	ldw	r2,-40(fp)
  101a14:	1000041e 	bne	r2,zero,101a28 <alt_avalon_spi_command+0x1b4>
  101a18:	e0c00217 	ldw	r3,8(fp)
  101a1c:	e0bff917 	ldw	r2,-28(fp)
  101a20:	1880011e 	bne	r3,r2,101a28 <alt_avalon_spi_command+0x1b4>
  101a24:	00000106 	br	101a2c <alt_avalon_spi_command+0x1b8>
  101a28:	003fb806 	br	10190c <_gp+0xffef9144>
  101a2c:	e0bffc17 	ldw	r2,-16(fp)
  101a30:	10800204 	addi	r2,r2,8
  101a34:	10800037 	ldwio	r2,0(r2)
  101a38:	e0bffa15 	stw	r2,-24(fp)
  101a3c:	e0bffa17 	ldw	r2,-24(fp)
  101a40:	1080080c 	andi	r2,r2,32
  101a44:	103ff926 	beq	r2,zero,101a2c <_gp+0xffef9264>
  101a48:	e0800317 	ldw	r2,12(fp)
  101a4c:	1080004c 	andi	r2,r2,1
  101a50:	1000041e 	bne	r2,zero,101a64 <alt_avalon_spi_command+0x1f0>
  101a54:	e0bffc17 	ldw	r2,-16(fp)
  101a58:	10800304 	addi	r2,r2,12
  101a5c:	0007883a 	mov	r3,zero
  101a60:	10c00035 	stwio	r3,0(r2)
  101a64:	e0800117 	ldw	r2,4(fp)
  101a68:	e037883a 	mov	sp,fp
  101a6c:	df000017 	ldw	fp,0(sp)
  101a70:	dec00104 	addi	sp,sp,4
  101a74:	f800283a 	ret

00101a78 <altera_avalon_uart_read_fd>:
  101a78:	defffa04 	addi	sp,sp,-24
  101a7c:	dfc00515 	stw	ra,20(sp)
  101a80:	df000415 	stw	fp,16(sp)
  101a84:	df000404 	addi	fp,sp,16
  101a88:	e13ffd15 	stw	r4,-12(fp)
  101a8c:	e17ffe15 	stw	r5,-8(fp)
  101a90:	e1bfff15 	stw	r6,-4(fp)
  101a94:	e0bffd17 	ldw	r2,-12(fp)
  101a98:	10800017 	ldw	r2,0(r2)
  101a9c:	e0bffc15 	stw	r2,-16(fp)
  101aa0:	e0bffc17 	ldw	r2,-16(fp)
  101aa4:	10c00a04 	addi	r3,r2,40
  101aa8:	e0bffd17 	ldw	r2,-12(fp)
  101aac:	10800217 	ldw	r2,8(r2)
  101ab0:	1809883a 	mov	r4,r3
  101ab4:	e17ffe17 	ldw	r5,-8(fp)
  101ab8:	e1bfff17 	ldw	r6,-4(fp)
  101abc:	100f883a 	mov	r7,r2
  101ac0:	0101f900 	call	101f90 <altera_avalon_uart_read>
  101ac4:	e037883a 	mov	sp,fp
  101ac8:	dfc00117 	ldw	ra,4(sp)
  101acc:	df000017 	ldw	fp,0(sp)
  101ad0:	dec00204 	addi	sp,sp,8
  101ad4:	f800283a 	ret

00101ad8 <altera_avalon_uart_write_fd>:
  101ad8:	defffa04 	addi	sp,sp,-24
  101adc:	dfc00515 	stw	ra,20(sp)
  101ae0:	df000415 	stw	fp,16(sp)
  101ae4:	df000404 	addi	fp,sp,16
  101ae8:	e13ffd15 	stw	r4,-12(fp)
  101aec:	e17ffe15 	stw	r5,-8(fp)
  101af0:	e1bfff15 	stw	r6,-4(fp)
  101af4:	e0bffd17 	ldw	r2,-12(fp)
  101af8:	10800017 	ldw	r2,0(r2)
  101afc:	e0bffc15 	stw	r2,-16(fp)
  101b00:	e0bffc17 	ldw	r2,-16(fp)
  101b04:	10c00a04 	addi	r3,r2,40
  101b08:	e0bffd17 	ldw	r2,-12(fp)
  101b0c:	10800217 	ldw	r2,8(r2)
  101b10:	1809883a 	mov	r4,r3
  101b14:	e17ffe17 	ldw	r5,-8(fp)
  101b18:	e1bfff17 	ldw	r6,-4(fp)
  101b1c:	100f883a 	mov	r7,r2
  101b20:	01021bc0 	call	1021bc <altera_avalon_uart_write>
  101b24:	e037883a 	mov	sp,fp
  101b28:	dfc00117 	ldw	ra,4(sp)
  101b2c:	df000017 	ldw	fp,0(sp)
  101b30:	dec00204 	addi	sp,sp,8
  101b34:	f800283a 	ret

00101b38 <altera_avalon_uart_close_fd>:
  101b38:	defffc04 	addi	sp,sp,-16
  101b3c:	dfc00315 	stw	ra,12(sp)
  101b40:	df000215 	stw	fp,8(sp)
  101b44:	df000204 	addi	fp,sp,8
  101b48:	e13fff15 	stw	r4,-4(fp)
  101b4c:	e0bfff17 	ldw	r2,-4(fp)
  101b50:	10800017 	ldw	r2,0(r2)
  101b54:	e0bffe15 	stw	r2,-8(fp)
  101b58:	e0bffe17 	ldw	r2,-8(fp)
  101b5c:	10c00a04 	addi	r3,r2,40
  101b60:	e0bfff17 	ldw	r2,-4(fp)
  101b64:	10800217 	ldw	r2,8(r2)
  101b68:	1809883a 	mov	r4,r3
  101b6c:	100b883a 	mov	r5,r2
  101b70:	0101eec0 	call	101eec <altera_avalon_uart_close>
  101b74:	e037883a 	mov	sp,fp
  101b78:	dfc00117 	ldw	ra,4(sp)
  101b7c:	df000017 	ldw	fp,0(sp)
  101b80:	dec00204 	addi	sp,sp,8
  101b84:	f800283a 	ret

00101b88 <altera_avalon_uart_init>:
  101b88:	defff804 	addi	sp,sp,-32
  101b8c:	dfc00715 	stw	ra,28(sp)
  101b90:	df000615 	stw	fp,24(sp)
  101b94:	df000604 	addi	fp,sp,24
  101b98:	e13ffd15 	stw	r4,-12(fp)
  101b9c:	e17ffe15 	stw	r5,-8(fp)
  101ba0:	e1bfff15 	stw	r6,-4(fp)
  101ba4:	e0bffd17 	ldw	r2,-12(fp)
  101ba8:	10800017 	ldw	r2,0(r2)
  101bac:	e0bffb15 	stw	r2,-20(fp)
  101bb0:	0005883a 	mov	r2,zero
  101bb4:	1000041e 	bne	r2,zero,101bc8 <altera_avalon_uart_init+0x40>
  101bb8:	0005883a 	mov	r2,zero
  101bbc:	1000021e 	bne	r2,zero,101bc8 <altera_avalon_uart_init+0x40>
  101bc0:	0005883a 	mov	r2,zero
  101bc4:	10000226 	beq	r2,zero,101bd0 <altera_avalon_uart_init+0x48>
  101bc8:	00800044 	movi	r2,1
  101bcc:	00000106 	br	101bd4 <altera_avalon_uart_init+0x4c>
  101bd0:	0005883a 	mov	r2,zero
  101bd4:	e0bffc15 	stw	r2,-16(fp)
  101bd8:	e0bffc17 	ldw	r2,-16(fp)
  101bdc:	10000f1e 	bne	r2,zero,101c1c <altera_avalon_uart_init+0x94>
  101be0:	e0bffd17 	ldw	r2,-12(fp)
  101be4:	00c32004 	movi	r3,3200
  101be8:	10c00115 	stw	r3,4(r2)
  101bec:	e0bffb17 	ldw	r2,-20(fp)
  101bf0:	10800304 	addi	r2,r2,12
  101bf4:	e0fffd17 	ldw	r3,-12(fp)
  101bf8:	18c00117 	ldw	r3,4(r3)
  101bfc:	10c00035 	stwio	r3,0(r2)
  101c00:	d8000015 	stw	zero,0(sp)
  101c04:	e13ffe17 	ldw	r4,-8(fp)
  101c08:	e17fff17 	ldw	r5,-4(fp)
  101c0c:	01800434 	movhi	r6,16
  101c10:	31870c04 	addi	r6,r6,7216
  101c14:	e1fffd17 	ldw	r7,-12(fp)
  101c18:	01038000 	call	103800 <alt_ic_isr_register>
  101c1c:	e037883a 	mov	sp,fp
  101c20:	dfc00117 	ldw	ra,4(sp)
  101c24:	df000017 	ldw	fp,0(sp)
  101c28:	dec00204 	addi	sp,sp,8
  101c2c:	f800283a 	ret

00101c30 <altera_avalon_uart_irq>:
  101c30:	defffa04 	addi	sp,sp,-24
  101c34:	dfc00515 	stw	ra,20(sp)
  101c38:	df000415 	stw	fp,16(sp)
  101c3c:	df000404 	addi	fp,sp,16
  101c40:	e13fff15 	stw	r4,-4(fp)
  101c44:	e0bfff17 	ldw	r2,-4(fp)
  101c48:	e0bffc15 	stw	r2,-16(fp)
  101c4c:	e0bffc17 	ldw	r2,-16(fp)
  101c50:	10800017 	ldw	r2,0(r2)
  101c54:	e0bffd15 	stw	r2,-12(fp)
  101c58:	e0bffd17 	ldw	r2,-12(fp)
  101c5c:	10800204 	addi	r2,r2,8
  101c60:	10800037 	ldwio	r2,0(r2)
  101c64:	e0bffe15 	stw	r2,-8(fp)
  101c68:	e0bffd17 	ldw	r2,-12(fp)
  101c6c:	10800204 	addi	r2,r2,8
  101c70:	0007883a 	mov	r3,zero
  101c74:	10c00035 	stwio	r3,0(r2)
  101c78:	e0bffd17 	ldw	r2,-12(fp)
  101c7c:	10800204 	addi	r2,r2,8
  101c80:	10800037 	ldwio	r2,0(r2)
  101c84:	e0bffe17 	ldw	r2,-8(fp)
  101c88:	1080200c 	andi	r2,r2,128
  101c8c:	10000326 	beq	r2,zero,101c9c <altera_avalon_uart_irq+0x6c>
  101c90:	e13ffc17 	ldw	r4,-16(fp)
  101c94:	e17ffe17 	ldw	r5,-8(fp)
  101c98:	0101cc80 	call	101cc8 <altera_avalon_uart_rxirq>
  101c9c:	e0bffe17 	ldw	r2,-8(fp)
  101ca0:	1081100c 	andi	r2,r2,1088
  101ca4:	10000326 	beq	r2,zero,101cb4 <altera_avalon_uart_irq+0x84>
  101ca8:	e13ffc17 	ldw	r4,-16(fp)
  101cac:	e17ffe17 	ldw	r5,-8(fp)
  101cb0:	0101da80 	call	101da8 <altera_avalon_uart_txirq>
  101cb4:	e037883a 	mov	sp,fp
  101cb8:	dfc00117 	ldw	ra,4(sp)
  101cbc:	df000017 	ldw	fp,0(sp)
  101cc0:	dec00204 	addi	sp,sp,8
  101cc4:	f800283a 	ret

00101cc8 <altera_avalon_uart_rxirq>:
  101cc8:	defffc04 	addi	sp,sp,-16
  101ccc:	df000315 	stw	fp,12(sp)
  101cd0:	df000304 	addi	fp,sp,12
  101cd4:	e13ffe15 	stw	r4,-8(fp)
  101cd8:	e17fff15 	stw	r5,-4(fp)
  101cdc:	e0bfff17 	ldw	r2,-4(fp)
  101ce0:	108000cc 	andi	r2,r2,3
  101ce4:	10000126 	beq	r2,zero,101cec <altera_avalon_uart_rxirq+0x24>
  101ce8:	00002b06 	br	101d98 <altera_avalon_uart_rxirq+0xd0>
  101cec:	e0bffe17 	ldw	r2,-8(fp)
  101cf0:	10800317 	ldw	r2,12(r2)
  101cf4:	e0bffe17 	ldw	r2,-8(fp)
  101cf8:	10800217 	ldw	r2,8(r2)
  101cfc:	e0bffe17 	ldw	r2,-8(fp)
  101d00:	10800317 	ldw	r2,12(r2)
  101d04:	10800044 	addi	r2,r2,1
  101d08:	10800fcc 	andi	r2,r2,63
  101d0c:	e0bffd15 	stw	r2,-12(fp)
  101d10:	e0bffe17 	ldw	r2,-8(fp)
  101d14:	10800317 	ldw	r2,12(r2)
  101d18:	e0fffe17 	ldw	r3,-8(fp)
  101d1c:	18c00017 	ldw	r3,0(r3)
  101d20:	18c00037 	ldwio	r3,0(r3)
  101d24:	1809883a 	mov	r4,r3
  101d28:	e0fffe17 	ldw	r3,-8(fp)
  101d2c:	1885883a 	add	r2,r3,r2
  101d30:	10800704 	addi	r2,r2,28
  101d34:	11000005 	stb	r4,0(r2)
  101d38:	e0bffe17 	ldw	r2,-8(fp)
  101d3c:	e0fffd17 	ldw	r3,-12(fp)
  101d40:	10c00315 	stw	r3,12(r2)
  101d44:	e0bffe17 	ldw	r2,-8(fp)
  101d48:	10800317 	ldw	r2,12(r2)
  101d4c:	10800044 	addi	r2,r2,1
  101d50:	10800fcc 	andi	r2,r2,63
  101d54:	e0bffd15 	stw	r2,-12(fp)
  101d58:	e0bffe17 	ldw	r2,-8(fp)
  101d5c:	10c00217 	ldw	r3,8(r2)
  101d60:	e0bffd17 	ldw	r2,-12(fp)
  101d64:	18800c1e 	bne	r3,r2,101d98 <altera_avalon_uart_rxirq+0xd0>
  101d68:	e0bffe17 	ldw	r2,-8(fp)
  101d6c:	10c00117 	ldw	r3,4(r2)
  101d70:	00bfdfc4 	movi	r2,-129
  101d74:	1886703a 	and	r3,r3,r2
  101d78:	e0bffe17 	ldw	r2,-8(fp)
  101d7c:	10c00115 	stw	r3,4(r2)
  101d80:	e0bffe17 	ldw	r2,-8(fp)
  101d84:	10800017 	ldw	r2,0(r2)
  101d88:	10800304 	addi	r2,r2,12
  101d8c:	e0fffe17 	ldw	r3,-8(fp)
  101d90:	18c00117 	ldw	r3,4(r3)
  101d94:	10c00035 	stwio	r3,0(r2)
  101d98:	e037883a 	mov	sp,fp
  101d9c:	df000017 	ldw	fp,0(sp)
  101da0:	dec00104 	addi	sp,sp,4
  101da4:	f800283a 	ret

00101da8 <altera_avalon_uart_txirq>:
  101da8:	defffb04 	addi	sp,sp,-20
  101dac:	df000415 	stw	fp,16(sp)
  101db0:	df000404 	addi	fp,sp,16
  101db4:	e13ffc15 	stw	r4,-16(fp)
  101db8:	e17ffd15 	stw	r5,-12(fp)
  101dbc:	e0bffc17 	ldw	r2,-16(fp)
  101dc0:	10c00417 	ldw	r3,16(r2)
  101dc4:	e0bffc17 	ldw	r2,-16(fp)
  101dc8:	10800517 	ldw	r2,20(r2)
  101dcc:	18803226 	beq	r3,r2,101e98 <altera_avalon_uart_txirq+0xf0>
  101dd0:	e0bffc17 	ldw	r2,-16(fp)
  101dd4:	10800617 	ldw	r2,24(r2)
  101dd8:	1080008c 	andi	r2,r2,2
  101ddc:	10000326 	beq	r2,zero,101dec <altera_avalon_uart_txirq+0x44>
  101de0:	e0bffd17 	ldw	r2,-12(fp)
  101de4:	1082000c 	andi	r2,r2,2048
  101de8:	10001d26 	beq	r2,zero,101e60 <altera_avalon_uart_txirq+0xb8>
  101dec:	e0bffc17 	ldw	r2,-16(fp)
  101df0:	10800417 	ldw	r2,16(r2)
  101df4:	e0bffc17 	ldw	r2,-16(fp)
  101df8:	10800517 	ldw	r2,20(r2)
  101dfc:	e0bffc17 	ldw	r2,-16(fp)
  101e00:	10800017 	ldw	r2,0(r2)
  101e04:	10800104 	addi	r2,r2,4
  101e08:	e0fffc17 	ldw	r3,-16(fp)
  101e0c:	18c00417 	ldw	r3,16(r3)
  101e10:	e13ffc17 	ldw	r4,-16(fp)
  101e14:	20c7883a 	add	r3,r4,r3
  101e18:	18c01704 	addi	r3,r3,92
  101e1c:	18c00003 	ldbu	r3,0(r3)
  101e20:	18c03fcc 	andi	r3,r3,255
  101e24:	10c00035 	stwio	r3,0(r2)
  101e28:	e0bffc17 	ldw	r2,-16(fp)
  101e2c:	10800417 	ldw	r2,16(r2)
  101e30:	10800044 	addi	r2,r2,1
  101e34:	e0fffc17 	ldw	r3,-16(fp)
  101e38:	18800415 	stw	r2,16(r3)
  101e3c:	10c00fcc 	andi	r3,r2,63
  101e40:	e0bffc17 	ldw	r2,-16(fp)
  101e44:	10c00415 	stw	r3,16(r2)
  101e48:	e0bffc17 	ldw	r2,-16(fp)
  101e4c:	10800117 	ldw	r2,4(r2)
  101e50:	10c01014 	ori	r3,r2,64
  101e54:	e0bffc17 	ldw	r2,-16(fp)
  101e58:	10c00115 	stw	r3,4(r2)
  101e5c:	00000e06 	br	101e98 <altera_avalon_uart_txirq+0xf0>
  101e60:	e0bffc17 	ldw	r2,-16(fp)
  101e64:	10800017 	ldw	r2,0(r2)
  101e68:	10800204 	addi	r2,r2,8
  101e6c:	10800037 	ldwio	r2,0(r2)
  101e70:	e0bffd15 	stw	r2,-12(fp)
  101e74:	e0bffd17 	ldw	r2,-12(fp)
  101e78:	1082000c 	andi	r2,r2,2048
  101e7c:	1000061e 	bne	r2,zero,101e98 <altera_avalon_uart_txirq+0xf0>
  101e80:	e0bffc17 	ldw	r2,-16(fp)
  101e84:	10c00117 	ldw	r3,4(r2)
  101e88:	00bfefc4 	movi	r2,-65
  101e8c:	1886703a 	and	r3,r3,r2
  101e90:	e0bffc17 	ldw	r2,-16(fp)
  101e94:	10c00115 	stw	r3,4(r2)
  101e98:	e0bffc17 	ldw	r2,-16(fp)
  101e9c:	10c00417 	ldw	r3,16(r2)
  101ea0:	e0bffc17 	ldw	r2,-16(fp)
  101ea4:	10800517 	ldw	r2,20(r2)
  101ea8:	1880061e 	bne	r3,r2,101ec4 <altera_avalon_uart_txirq+0x11c>
  101eac:	e0bffc17 	ldw	r2,-16(fp)
  101eb0:	10c00117 	ldw	r3,4(r2)
  101eb4:	00beefc4 	movi	r2,-1089
  101eb8:	1886703a 	and	r3,r3,r2
  101ebc:	e0bffc17 	ldw	r2,-16(fp)
  101ec0:	10c00115 	stw	r3,4(r2)
  101ec4:	e0bffc17 	ldw	r2,-16(fp)
  101ec8:	10800017 	ldw	r2,0(r2)
  101ecc:	10800304 	addi	r2,r2,12
  101ed0:	e0fffc17 	ldw	r3,-16(fp)
  101ed4:	18c00117 	ldw	r3,4(r3)
  101ed8:	10c00035 	stwio	r3,0(r2)
  101edc:	e037883a 	mov	sp,fp
  101ee0:	df000017 	ldw	fp,0(sp)
  101ee4:	dec00104 	addi	sp,sp,4
  101ee8:	f800283a 	ret

00101eec <altera_avalon_uart_close>:
  101eec:	defffd04 	addi	sp,sp,-12
  101ef0:	df000215 	stw	fp,8(sp)
  101ef4:	df000204 	addi	fp,sp,8
  101ef8:	e13ffe15 	stw	r4,-8(fp)
  101efc:	e17fff15 	stw	r5,-4(fp)
  101f00:	00000506 	br	101f18 <altera_avalon_uart_close+0x2c>
  101f04:	e0bfff17 	ldw	r2,-4(fp)
  101f08:	1090000c 	andi	r2,r2,16384
  101f0c:	10000226 	beq	r2,zero,101f18 <altera_avalon_uart_close+0x2c>
  101f10:	00bffd44 	movi	r2,-11
  101f14:	00000606 	br	101f30 <altera_avalon_uart_close+0x44>
  101f18:	e0bffe17 	ldw	r2,-8(fp)
  101f1c:	10c00417 	ldw	r3,16(r2)
  101f20:	e0bffe17 	ldw	r2,-8(fp)
  101f24:	10800517 	ldw	r2,20(r2)
  101f28:	18bff61e 	bne	r3,r2,101f04 <_gp+0xffef973c>
  101f2c:	0005883a 	mov	r2,zero
  101f30:	e037883a 	mov	sp,fp
  101f34:	df000017 	ldw	fp,0(sp)
  101f38:	dec00104 	addi	sp,sp,4
  101f3c:	f800283a 	ret

00101f40 <alt_get_errno>:
  101f40:	defffe04 	addi	sp,sp,-8
  101f44:	dfc00115 	stw	ra,4(sp)
  101f48:	df000015 	stw	fp,0(sp)
  101f4c:	d839883a 	mov	fp,sp
  101f50:	00800834 	movhi	r2,32
  101f54:	1081fd04 	addi	r2,r2,2036
  101f58:	10800017 	ldw	r2,0(r2)
  101f5c:	10000526 	beq	r2,zero,101f74 <alt_get_errno+0x34>
  101f60:	00800834 	movhi	r2,32
  101f64:	1081fd04 	addi	r2,r2,2036
  101f68:	10800017 	ldw	r2,0(r2)
  101f6c:	103ee83a 	callr	r2
  101f70:	00000206 	br	101f7c <alt_get_errno+0x3c>
  101f74:	00800834 	movhi	r2,32
  101f78:	10821504 	addi	r2,r2,2132
  101f7c:	e037883a 	mov	sp,fp
  101f80:	dfc00117 	ldw	ra,4(sp)
  101f84:	df000017 	ldw	fp,0(sp)
  101f88:	dec00204 	addi	sp,sp,8
  101f8c:	f800283a 	ret

00101f90 <altera_avalon_uart_read>:
  101f90:	defff204 	addi	sp,sp,-56
  101f94:	dfc00d15 	stw	ra,52(sp)
  101f98:	df000c15 	stw	fp,48(sp)
  101f9c:	df000c04 	addi	fp,sp,48
  101fa0:	e13ffc15 	stw	r4,-16(fp)
  101fa4:	e17ffd15 	stw	r5,-12(fp)
  101fa8:	e1bffe15 	stw	r6,-8(fp)
  101fac:	e1ffff15 	stw	r7,-4(fp)
  101fb0:	e03ff405 	stb	zero,-48(fp)
  101fb4:	e03ff515 	stw	zero,-44(fp)
  101fb8:	e0bfff17 	ldw	r2,-4(fp)
  101fbc:	1090000c 	andi	r2,r2,16384
  101fc0:	1005003a 	cmpeq	r2,r2,zero
  101fc4:	10803fcc 	andi	r2,r2,255
  101fc8:	e0bff615 	stw	r2,-40(fp)
  101fcc:	00001306 	br	10201c <altera_avalon_uart_read+0x8c>
  101fd0:	e0bff517 	ldw	r2,-44(fp)
  101fd4:	10800044 	addi	r2,r2,1
  101fd8:	e0bff515 	stw	r2,-44(fp)
  101fdc:	e0bffd17 	ldw	r2,-12(fp)
  101fe0:	10c00044 	addi	r3,r2,1
  101fe4:	e0fffd15 	stw	r3,-12(fp)
  101fe8:	e0fffc17 	ldw	r3,-16(fp)
  101fec:	18c00217 	ldw	r3,8(r3)
  101ff0:	e13ffc17 	ldw	r4,-16(fp)
  101ff4:	20c7883a 	add	r3,r4,r3
  101ff8:	18c00704 	addi	r3,r3,28
  101ffc:	18c00003 	ldbu	r3,0(r3)
  102000:	10c00005 	stb	r3,0(r2)
  102004:	e0bffc17 	ldw	r2,-16(fp)
  102008:	10800217 	ldw	r2,8(r2)
  10200c:	10800044 	addi	r2,r2,1
  102010:	10c00fcc 	andi	r3,r2,63
  102014:	e0bffc17 	ldw	r2,-16(fp)
  102018:	10c00215 	stw	r3,8(r2)
  10201c:	e0fff517 	ldw	r3,-44(fp)
  102020:	e0bffe17 	ldw	r2,-8(fp)
  102024:	1880050e 	bge	r3,r2,10203c <altera_avalon_uart_read+0xac>
  102028:	e0bffc17 	ldw	r2,-16(fp)
  10202c:	10c00217 	ldw	r3,8(r2)
  102030:	e0bffc17 	ldw	r2,-16(fp)
  102034:	10800317 	ldw	r2,12(r2)
  102038:	18bfe51e 	bne	r3,r2,101fd0 <_gp+0xffef9808>
  10203c:	e0bff517 	ldw	r2,-44(fp)
  102040:	1000251e 	bne	r2,zero,1020d8 <altera_avalon_uart_read+0x148>
  102044:	e0bffc17 	ldw	r2,-16(fp)
  102048:	10c00217 	ldw	r3,8(r2)
  10204c:	e0bffc17 	ldw	r2,-16(fp)
  102050:	10800317 	ldw	r2,12(r2)
  102054:	1880201e 	bne	r3,r2,1020d8 <altera_avalon_uart_read+0x148>
  102058:	e0bff617 	ldw	r2,-40(fp)
  10205c:	1000071e 	bne	r2,zero,10207c <altera_avalon_uart_read+0xec>
  102060:	0101f400 	call	101f40 <alt_get_errno>
  102064:	1007883a 	mov	r3,r2
  102068:	008002c4 	movi	r2,11
  10206c:	18800015 	stw	r2,0(r3)
  102070:	00800044 	movi	r2,1
  102074:	e0bff405 	stb	r2,-48(fp)
  102078:	00001b06 	br	1020e8 <altera_avalon_uart_read+0x158>
  10207c:	0005303a 	rdctl	r2,status
  102080:	e0bff815 	stw	r2,-32(fp)
  102084:	e0fff817 	ldw	r3,-32(fp)
  102088:	00bfff84 	movi	r2,-2
  10208c:	1884703a 	and	r2,r3,r2
  102090:	1001703a 	wrctl	status,r2
  102094:	e0bff817 	ldw	r2,-32(fp)
  102098:	e0bff715 	stw	r2,-36(fp)
  10209c:	e0bffc17 	ldw	r2,-16(fp)
  1020a0:	10800117 	ldw	r2,4(r2)
  1020a4:	10c02014 	ori	r3,r2,128
  1020a8:	e0bffc17 	ldw	r2,-16(fp)
  1020ac:	10c00115 	stw	r3,4(r2)
  1020b0:	e0bffc17 	ldw	r2,-16(fp)
  1020b4:	10800017 	ldw	r2,0(r2)
  1020b8:	10800304 	addi	r2,r2,12
  1020bc:	e0fffc17 	ldw	r3,-16(fp)
  1020c0:	18c00117 	ldw	r3,4(r3)
  1020c4:	10c00035 	stwio	r3,0(r2)
  1020c8:	e0bff717 	ldw	r2,-36(fp)
  1020cc:	e0bff915 	stw	r2,-28(fp)
  1020d0:	e0bff917 	ldw	r2,-28(fp)
  1020d4:	1001703a 	wrctl	status,r2
  1020d8:	e0bff517 	ldw	r2,-44(fp)
  1020dc:	1000021e 	bne	r2,zero,1020e8 <altera_avalon_uart_read+0x158>
  1020e0:	e0bffe17 	ldw	r2,-8(fp)
  1020e4:	103fb91e 	bne	r2,zero,101fcc <_gp+0xffef9804>
  1020e8:	0005303a 	rdctl	r2,status
  1020ec:	e0bffa15 	stw	r2,-24(fp)
  1020f0:	e0fffa17 	ldw	r3,-24(fp)
  1020f4:	00bfff84 	movi	r2,-2
  1020f8:	1884703a 	and	r2,r3,r2
  1020fc:	1001703a 	wrctl	status,r2
  102100:	e0bffa17 	ldw	r2,-24(fp)
  102104:	e0bff715 	stw	r2,-36(fp)
  102108:	e0bffc17 	ldw	r2,-16(fp)
  10210c:	10800117 	ldw	r2,4(r2)
  102110:	10c02014 	ori	r3,r2,128
  102114:	e0bffc17 	ldw	r2,-16(fp)
  102118:	10c00115 	stw	r3,4(r2)
  10211c:	e0bffc17 	ldw	r2,-16(fp)
  102120:	10800017 	ldw	r2,0(r2)
  102124:	10800304 	addi	r2,r2,12
  102128:	e0fffc17 	ldw	r3,-16(fp)
  10212c:	18c00117 	ldw	r3,4(r3)
  102130:	10c00035 	stwio	r3,0(r2)
  102134:	e0bff717 	ldw	r2,-36(fp)
  102138:	e0bffb15 	stw	r2,-20(fp)
  10213c:	e0bffb17 	ldw	r2,-20(fp)
  102140:	1001703a 	wrctl	status,r2
  102144:	e0bff403 	ldbu	r2,-48(fp)
  102148:	10000226 	beq	r2,zero,102154 <altera_avalon_uart_read+0x1c4>
  10214c:	00bffd44 	movi	r2,-11
  102150:	00000106 	br	102158 <altera_avalon_uart_read+0x1c8>
  102154:	e0bff517 	ldw	r2,-44(fp)
  102158:	e037883a 	mov	sp,fp
  10215c:	dfc00117 	ldw	ra,4(sp)
  102160:	df000017 	ldw	fp,0(sp)
  102164:	dec00204 	addi	sp,sp,8
  102168:	f800283a 	ret

0010216c <alt_get_errno>:
  10216c:	defffe04 	addi	sp,sp,-8
  102170:	dfc00115 	stw	ra,4(sp)
  102174:	df000015 	stw	fp,0(sp)
  102178:	d839883a 	mov	fp,sp
  10217c:	00800834 	movhi	r2,32
  102180:	1081fd04 	addi	r2,r2,2036
  102184:	10800017 	ldw	r2,0(r2)
  102188:	10000526 	beq	r2,zero,1021a0 <alt_get_errno+0x34>
  10218c:	00800834 	movhi	r2,32
  102190:	1081fd04 	addi	r2,r2,2036
  102194:	10800017 	ldw	r2,0(r2)
  102198:	103ee83a 	callr	r2
  10219c:	00000206 	br	1021a8 <alt_get_errno+0x3c>
  1021a0:	00800834 	movhi	r2,32
  1021a4:	10821504 	addi	r2,r2,2132
  1021a8:	e037883a 	mov	sp,fp
  1021ac:	dfc00117 	ldw	ra,4(sp)
  1021b0:	df000017 	ldw	fp,0(sp)
  1021b4:	dec00204 	addi	sp,sp,8
  1021b8:	f800283a 	ret

001021bc <altera_avalon_uart_write>:
  1021bc:	defff204 	addi	sp,sp,-56
  1021c0:	dfc00d15 	stw	ra,52(sp)
  1021c4:	df000c15 	stw	fp,48(sp)
  1021c8:	df000c04 	addi	fp,sp,48
  1021cc:	e13ffc15 	stw	r4,-16(fp)
  1021d0:	e17ffd15 	stw	r5,-12(fp)
  1021d4:	e1bffe15 	stw	r6,-8(fp)
  1021d8:	e1ffff15 	stw	r7,-4(fp)
  1021dc:	e0bffe17 	ldw	r2,-8(fp)
  1021e0:	e0bff415 	stw	r2,-48(fp)
  1021e4:	e0bfff17 	ldw	r2,-4(fp)
  1021e8:	1090000c 	andi	r2,r2,16384
  1021ec:	e0bff515 	stw	r2,-44(fp)
  1021f0:	00003c06 	br	1022e4 <altera_avalon_uart_write+0x128>
  1021f4:	e0bffc17 	ldw	r2,-16(fp)
  1021f8:	10800517 	ldw	r2,20(r2)
  1021fc:	10800044 	addi	r2,r2,1
  102200:	10800fcc 	andi	r2,r2,63
  102204:	e0bff615 	stw	r2,-40(fp)
  102208:	e0bffc17 	ldw	r2,-16(fp)
  10220c:	10c00417 	ldw	r3,16(r2)
  102210:	e0bff617 	ldw	r2,-40(fp)
  102214:	1880221e 	bne	r3,r2,1022a0 <altera_avalon_uart_write+0xe4>
  102218:	e0bff517 	ldw	r2,-44(fp)
  10221c:	10000526 	beq	r2,zero,102234 <altera_avalon_uart_write+0x78>
  102220:	010216c0 	call	10216c <alt_get_errno>
  102224:	1007883a 	mov	r3,r2
  102228:	008002c4 	movi	r2,11
  10222c:	18800015 	stw	r2,0(r3)
  102230:	00002e06 	br	1022ec <altera_avalon_uart_write+0x130>
  102234:	0005303a 	rdctl	r2,status
  102238:	e0bff815 	stw	r2,-32(fp)
  10223c:	e0fff817 	ldw	r3,-32(fp)
  102240:	00bfff84 	movi	r2,-2
  102244:	1884703a 	and	r2,r3,r2
  102248:	1001703a 	wrctl	status,r2
  10224c:	e0bff817 	ldw	r2,-32(fp)
  102250:	e0bff715 	stw	r2,-36(fp)
  102254:	e0bffc17 	ldw	r2,-16(fp)
  102258:	10800117 	ldw	r2,4(r2)
  10225c:	10c11014 	ori	r3,r2,1088
  102260:	e0bffc17 	ldw	r2,-16(fp)
  102264:	10c00115 	stw	r3,4(r2)
  102268:	e0bffc17 	ldw	r2,-16(fp)
  10226c:	10800017 	ldw	r2,0(r2)
  102270:	10800304 	addi	r2,r2,12
  102274:	e0fffc17 	ldw	r3,-16(fp)
  102278:	18c00117 	ldw	r3,4(r3)
  10227c:	10c00035 	stwio	r3,0(r2)
  102280:	e0bff717 	ldw	r2,-36(fp)
  102284:	e0bff915 	stw	r2,-28(fp)
  102288:	e0bff917 	ldw	r2,-28(fp)
  10228c:	1001703a 	wrctl	status,r2
  102290:	e0bffc17 	ldw	r2,-16(fp)
  102294:	10c00417 	ldw	r3,16(r2)
  102298:	e0bff617 	ldw	r2,-40(fp)
  10229c:	18bffc26 	beq	r3,r2,102290 <_gp+0xffef9ac8>
  1022a0:	e0bff417 	ldw	r2,-48(fp)
  1022a4:	10bfffc4 	addi	r2,r2,-1
  1022a8:	e0bff415 	stw	r2,-48(fp)
  1022ac:	e0bffc17 	ldw	r2,-16(fp)
  1022b0:	10c00517 	ldw	r3,20(r2)
  1022b4:	e0bffd17 	ldw	r2,-12(fp)
  1022b8:	11000044 	addi	r4,r2,1
  1022bc:	e13ffd15 	stw	r4,-12(fp)
  1022c0:	10800003 	ldbu	r2,0(r2)
  1022c4:	1009883a 	mov	r4,r2
  1022c8:	e0bffc17 	ldw	r2,-16(fp)
  1022cc:	10c5883a 	add	r2,r2,r3
  1022d0:	10801704 	addi	r2,r2,92
  1022d4:	11000005 	stb	r4,0(r2)
  1022d8:	e0bffc17 	ldw	r2,-16(fp)
  1022dc:	e0fff617 	ldw	r3,-40(fp)
  1022e0:	10c00515 	stw	r3,20(r2)
  1022e4:	e0bff417 	ldw	r2,-48(fp)
  1022e8:	103fc21e 	bne	r2,zero,1021f4 <_gp+0xffef9a2c>
  1022ec:	0005303a 	rdctl	r2,status
  1022f0:	e0bffa15 	stw	r2,-24(fp)
  1022f4:	e0fffa17 	ldw	r3,-24(fp)
  1022f8:	00bfff84 	movi	r2,-2
  1022fc:	1884703a 	and	r2,r3,r2
  102300:	1001703a 	wrctl	status,r2
  102304:	e0bffa17 	ldw	r2,-24(fp)
  102308:	e0bff715 	stw	r2,-36(fp)
  10230c:	e0bffc17 	ldw	r2,-16(fp)
  102310:	10800117 	ldw	r2,4(r2)
  102314:	10c11014 	ori	r3,r2,1088
  102318:	e0bffc17 	ldw	r2,-16(fp)
  10231c:	10c00115 	stw	r3,4(r2)
  102320:	e0bffc17 	ldw	r2,-16(fp)
  102324:	10800017 	ldw	r2,0(r2)
  102328:	10800304 	addi	r2,r2,12
  10232c:	e0fffc17 	ldw	r3,-16(fp)
  102330:	18c00117 	ldw	r3,4(r3)
  102334:	10c00035 	stwio	r3,0(r2)
  102338:	e0bff717 	ldw	r2,-36(fp)
  10233c:	e0bffb15 	stw	r2,-20(fp)
  102340:	e0bffb17 	ldw	r2,-20(fp)
  102344:	1001703a 	wrctl	status,r2
  102348:	e0fffe17 	ldw	r3,-8(fp)
  10234c:	e0bff417 	ldw	r2,-48(fp)
  102350:	1885c83a 	sub	r2,r3,r2
  102354:	e037883a 	mov	sp,fp
  102358:	dfc00117 	ldw	ra,4(sp)
  10235c:	df000017 	ldw	fp,0(sp)
  102360:	dec00204 	addi	sp,sp,8
  102364:	f800283a 	ret

00102368 <alt_flash_device_register>:
  102368:	defffd04 	addi	sp,sp,-12
  10236c:	dfc00215 	stw	ra,8(sp)
  102370:	df000115 	stw	fp,4(sp)
  102374:	df000104 	addi	fp,sp,4
  102378:	e13fff15 	stw	r4,-4(fp)
  10237c:	e13fff17 	ldw	r4,-4(fp)
  102380:	01400834 	movhi	r5,32
  102384:	2941fe04 	addi	r5,r5,2040
  102388:	01035d00 	call	1035d0 <alt_dev_llist_insert>
  10238c:	e037883a 	mov	sp,fp
  102390:	dfc00117 	ldw	ra,4(sp)
  102394:	df000017 	ldw	fp,0(sp)
  102398:	dec00204 	addi	sp,sp,8
  10239c:	f800283a 	ret

001023a0 <alt_onchip_flash_read>:
  1023a0:	defff704 	addi	sp,sp,-36
  1023a4:	dfc00815 	stw	ra,32(sp)
  1023a8:	df000715 	stw	fp,28(sp)
  1023ac:	df000704 	addi	fp,sp,28
  1023b0:	e13ffc15 	stw	r4,-16(fp)
  1023b4:	e17ffd15 	stw	r5,-12(fp)
  1023b8:	e1bffe15 	stw	r6,-8(fp)
  1023bc:	e1ffff15 	stw	r7,-4(fp)
  1023c0:	e03ff915 	stw	zero,-28(fp)
  1023c4:	e0bffc17 	ldw	r2,-16(fp)
  1023c8:	e0bffa15 	stw	r2,-24(fp)
  1023cc:	e0bffa17 	ldw	r2,-24(fp)
  1023d0:	10800b17 	ldw	r2,44(r2)
  1023d4:	e0fffd17 	ldw	r3,-12(fp)
  1023d8:	1880060e 	bge	r3,r2,1023f4 <alt_onchip_flash_read+0x54>
  1023dc:	e0fffd17 	ldw	r3,-12(fp)
  1023e0:	e0bfff17 	ldw	r2,-4(fp)
  1023e4:	1885883a 	add	r2,r3,r2
  1023e8:	e0fffa17 	ldw	r3,-24(fp)
  1023ec:	18c00b17 	ldw	r3,44(r3)
  1023f0:	1880020e 	bge	r3,r2,1023fc <alt_onchip_flash_read+0x5c>
  1023f4:	00bffc84 	movi	r2,-14
  1023f8:	00001706 	br	102458 <alt_onchip_flash_read+0xb8>
  1023fc:	e0bffa17 	ldw	r2,-24(fp)
  102400:	10c00a17 	ldw	r3,40(r2)
  102404:	e0bffd17 	ldw	r2,-12(fp)
  102408:	1887883a 	add	r3,r3,r2
  10240c:	e0bfff17 	ldw	r2,-4(fp)
  102410:	e13ffe17 	ldw	r4,-8(fp)
  102414:	180b883a 	mov	r5,r3
  102418:	100d883a 	mov	r6,r2
  10241c:	0103d640 	call	103d64 <memcpy>
  102420:	e0bffa17 	ldw	r2,-24(fp)
  102424:	10802f17 	ldw	r2,188(r2)
  102428:	10000a26 	beq	r2,zero,102454 <alt_onchip_flash_read+0xb4>
  10242c:	e0bffa17 	ldw	r2,-24(fp)
  102430:	10802f17 	ldw	r2,188(r2)
  102434:	10800037 	ldwio	r2,0(r2)
  102438:	1080010c 	andi	r2,r2,4
  10243c:	e0bffb15 	stw	r2,-20(fp)
  102440:	e0bffb17 	ldw	r2,-20(fp)
  102444:	10800120 	cmpeqi	r2,r2,4
  102448:	1000021e 	bne	r2,zero,102454 <alt_onchip_flash_read+0xb4>
  10244c:	00bffec4 	movi	r2,-5
  102450:	e0bff915 	stw	r2,-28(fp)
  102454:	e0bff917 	ldw	r2,-28(fp)
  102458:	e037883a 	mov	sp,fp
  10245c:	dfc00117 	ldw	ra,4(sp)
  102460:	df000017 	ldw	fp,0(sp)
  102464:	dec00204 	addi	sp,sp,8
  102468:	f800283a 	ret

0010246c <alt_onchip_flash_get_info>:
  10246c:	defffa04 	addi	sp,sp,-24
  102470:	df000515 	stw	fp,20(sp)
  102474:	df000504 	addi	fp,sp,20
  102478:	e13ffd15 	stw	r4,-12(fp)
  10247c:	e17ffe15 	stw	r5,-8(fp)
  102480:	e1bfff15 	stw	r6,-4(fp)
  102484:	e03ffb15 	stw	zero,-20(fp)
  102488:	e0bffd17 	ldw	r2,-12(fp)
  10248c:	e0bffc15 	stw	r2,-16(fp)
  102490:	e0bfff17 	ldw	r2,-4(fp)
  102494:	10000426 	beq	r2,zero,1024a8 <alt_onchip_flash_get_info+0x3c>
  102498:	e0bffc17 	ldw	r2,-16(fp)
  10249c:	10c00c17 	ldw	r3,48(r2)
  1024a0:	e0bfff17 	ldw	r2,-4(fp)
  1024a4:	10c00015 	stw	r3,0(r2)
  1024a8:	e0bffc17 	ldw	r2,-16(fp)
  1024ac:	10800c17 	ldw	r2,48(r2)
  1024b0:	1000031e 	bne	r2,zero,1024c0 <alt_onchip_flash_get_info+0x54>
  1024b4:	00bffd04 	movi	r2,-12
  1024b8:	e0bffb15 	stw	r2,-20(fp)
  1024bc:	00000d06 	br	1024f4 <alt_onchip_flash_get_info+0x88>
  1024c0:	e0bffc17 	ldw	r2,-16(fp)
  1024c4:	10800c17 	ldw	r2,48(r2)
  1024c8:	10800250 	cmplti	r2,r2,9
  1024cc:	1000031e 	bne	r2,zero,1024dc <alt_onchip_flash_get_info+0x70>
  1024d0:	00bffc84 	movi	r2,-14
  1024d4:	e0bffb15 	stw	r2,-20(fp)
  1024d8:	00000606 	br	1024f4 <alt_onchip_flash_get_info+0x88>
  1024dc:	e0bffe17 	ldw	r2,-8(fp)
  1024e0:	10000426 	beq	r2,zero,1024f4 <alt_onchip_flash_get_info+0x88>
  1024e4:	e0bffc17 	ldw	r2,-16(fp)
  1024e8:	10c00d04 	addi	r3,r2,52
  1024ec:	e0bffe17 	ldw	r2,-8(fp)
  1024f0:	10c00015 	stw	r3,0(r2)
  1024f4:	e0bffb17 	ldw	r2,-20(fp)
  1024f8:	e037883a 	mov	sp,fp
  1024fc:	df000017 	ldw	fp,0(sp)
  102500:	dec00104 	addi	sp,sp,4
  102504:	f800283a 	ret

00102508 <alt_onchip_flash_erase_block>:
  102508:	defff904 	addi	sp,sp,-28
  10250c:	dfc00615 	stw	ra,24(sp)
  102510:	df000515 	stw	fp,20(sp)
  102514:	df000504 	addi	fp,sp,20
  102518:	e13ffe15 	stw	r4,-8(fp)
  10251c:	e17fff15 	stw	r5,-4(fp)
  102520:	e03ffb15 	stw	zero,-20(fp)
  102524:	e0bffe17 	ldw	r2,-8(fp)
  102528:	e0bffc15 	stw	r2,-16(fp)
  10252c:	e0bffc17 	ldw	r2,-16(fp)
  102530:	10800b17 	ldw	r2,44(r2)
  102534:	e0ffff17 	ldw	r3,-4(fp)
  102538:	18800216 	blt	r3,r2,102544 <alt_onchip_flash_erase_block+0x3c>
  10253c:	00bffc84 	movi	r2,-14
  102540:	00004606 	br	10265c <alt_onchip_flash_erase_block+0x154>
  102544:	e0bffc17 	ldw	r2,-16(fp)
  102548:	10802f17 	ldw	r2,188(r2)
  10254c:	10000326 	beq	r2,zero,10255c <alt_onchip_flash_erase_block+0x54>
  102550:	e0bffc17 	ldw	r2,-16(fp)
  102554:	10802e17 	ldw	r2,184(r2)
  102558:	10000226 	beq	r2,zero,102564 <alt_onchip_flash_erase_block+0x5c>
  10255c:	00bffb44 	movi	r2,-19
  102560:	00003e06 	br	10265c <alt_onchip_flash_erase_block+0x154>
  102564:	e0bffc17 	ldw	r2,-16(fp)
  102568:	10803f17 	ldw	r2,252(r2)
  10256c:	10ffffc4 	addi	r3,r2,-1
  102570:	e0bfff17 	ldw	r2,-4(fp)
  102574:	1884703a 	and	r2,r3,r2
  102578:	10000226 	beq	r2,zero,102584 <alt_onchip_flash_erase_block+0x7c>
  10257c:	00bffa84 	movi	r2,-22
  102580:	00003606 	br	10265c <alt_onchip_flash_erase_block+0x154>
  102584:	e13ffc17 	ldw	r4,-16(fp)
  102588:	01030e40 	call	1030e4 <alt_onchip_flash_poll_for_status_to_go_idle>
  10258c:	e0bffb15 	stw	r2,-20(fp)
  102590:	e0bffb17 	ldw	r2,-20(fp)
  102594:	10000226 	beq	r2,zero,1025a0 <alt_onchip_flash_erase_block+0x98>
  102598:	e0bffb17 	ldw	r2,-20(fp)
  10259c:	00002f06 	br	10265c <alt_onchip_flash_erase_block+0x154>
  1025a0:	e0bffc17 	ldw	r2,-16(fp)
  1025a4:	10802f17 	ldw	r2,188(r2)
  1025a8:	10c00104 	addi	r3,r2,4
  1025ac:	e0bffc17 	ldw	r2,-16(fp)
  1025b0:	10802f17 	ldw	r2,188(r2)
  1025b4:	10800104 	addi	r2,r2,4
  1025b8:	10800037 	ldwio	r2,0(r2)
  1025bc:	113c002c 	andhi	r4,r2,61440
  1025c0:	00802034 	movhi	r2,128
  1025c4:	10bfffc4 	addi	r2,r2,-1
  1025c8:	2084b03a 	or	r2,r4,r2
  1025cc:	18800035 	stwio	r2,0(r3)
  1025d0:	e0bfff17 	ldw	r2,-4(fp)
  1025d4:	1000010e 	bge	r2,zero,1025dc <alt_onchip_flash_erase_block+0xd4>
  1025d8:	108000c4 	addi	r2,r2,3
  1025dc:	1005d0ba 	srai	r2,r2,2
  1025e0:	e0bffd15 	stw	r2,-12(fp)
  1025e4:	e0bffc17 	ldw	r2,-16(fp)
  1025e8:	10802f17 	ldw	r2,188(r2)
  1025ec:	10800104 	addi	r2,r2,4
  1025f0:	e0fffc17 	ldw	r3,-16(fp)
  1025f4:	18c02f17 	ldw	r3,188(r3)
  1025f8:	18c00104 	addi	r3,r3,4
  1025fc:	18c00037 	ldwio	r3,0(r3)
  102600:	193c002c 	andhi	r4,r3,61440
  102604:	e0fffd17 	ldw	r3,-12(fp)
  102608:	18c01c34 	orhi	r3,r3,112
  10260c:	20c6b03a 	or	r3,r4,r3
  102610:	10c00035 	stwio	r3,0(r2)
  102614:	e13ffc17 	ldw	r4,-16(fp)
  102618:	01030e40 	call	1030e4 <alt_onchip_flash_poll_for_status_to_go_idle>
  10261c:	e0bffb15 	stw	r2,-20(fp)
  102620:	e13ffc17 	ldw	r4,-16(fp)
  102624:	01031740 	call	103174 <alt_onchip_flash_poll_for_status_erase_passed>
  102628:	e0bffb15 	stw	r2,-20(fp)
  10262c:	e0bffc17 	ldw	r2,-16(fp)
  102630:	10802f17 	ldw	r2,188(r2)
  102634:	10c00104 	addi	r3,r2,4
  102638:	e0bffc17 	ldw	r2,-16(fp)
  10263c:	10802f17 	ldw	r2,188(r2)
  102640:	10800104 	addi	r2,r2,4
  102644:	11000037 	ldwio	r4,0(r2)
  102648:	00840034 	movhi	r2,4096
  10264c:	10bfffc4 	addi	r2,r2,-1
  102650:	2084b03a 	or	r2,r4,r2
  102654:	18800035 	stwio	r2,0(r3)
  102658:	e0bffb17 	ldw	r2,-20(fp)
  10265c:	e037883a 	mov	sp,fp
  102660:	dfc00117 	ldw	ra,4(sp)
  102664:	df000017 	ldw	fp,0(sp)
  102668:	dec00204 	addi	sp,sp,8
  10266c:	f800283a 	ret

00102670 <alt_onchip_flash_write_block>:
  102670:	defff204 	addi	sp,sp,-56
  102674:	dfc00d15 	stw	ra,52(sp)
  102678:	df000c15 	stw	fp,48(sp)
  10267c:	df000c04 	addi	fp,sp,48
  102680:	e13ffc15 	stw	r4,-16(fp)
  102684:	e17ffd15 	stw	r5,-12(fp)
  102688:	e1bffe15 	stw	r6,-8(fp)
  10268c:	e1ffff15 	stw	r7,-4(fp)
  102690:	e03ff415 	stw	zero,-48(fp)
  102694:	e0bffc17 	ldw	r2,-16(fp)
  102698:	e0bff815 	stw	r2,-32(fp)
  10269c:	e03ff515 	stw	zero,-44(fp)
  1026a0:	e0bffe17 	ldw	r2,-8(fp)
  1026a4:	e0bff615 	stw	r2,-40(fp)
  1026a8:	e0bff817 	ldw	r2,-32(fp)
  1026ac:	10800b17 	ldw	r2,44(r2)
  1026b0:	e0fffd17 	ldw	r3,-12(fp)
  1026b4:	18800a0e 	bge	r3,r2,1026e0 <alt_onchip_flash_write_block+0x70>
  1026b8:	e0bff817 	ldw	r2,-32(fp)
  1026bc:	10800b17 	ldw	r2,44(r2)
  1026c0:	e0fffe17 	ldw	r3,-8(fp)
  1026c4:	1880060e 	bge	r3,r2,1026e0 <alt_onchip_flash_write_block+0x70>
  1026c8:	e0bff817 	ldw	r2,-32(fp)
  1026cc:	10c00b17 	ldw	r3,44(r2)
  1026d0:	e0bffe17 	ldw	r2,-8(fp)
  1026d4:	1887c83a 	sub	r3,r3,r2
  1026d8:	e0800217 	ldw	r2,8(fp)
  1026dc:	1880020e 	bge	r3,r2,1026e8 <alt_onchip_flash_write_block+0x78>
  1026e0:	00bffc84 	movi	r2,-14
  1026e4:	00008e06 	br	102920 <alt_onchip_flash_write_block+0x2b0>
  1026e8:	e0bff817 	ldw	r2,-32(fp)
  1026ec:	10802f17 	ldw	r2,188(r2)
  1026f0:	10000326 	beq	r2,zero,102700 <alt_onchip_flash_write_block+0x90>
  1026f4:	e0bff817 	ldw	r2,-32(fp)
  1026f8:	10802e17 	ldw	r2,184(r2)
  1026fc:	10000226 	beq	r2,zero,102708 <alt_onchip_flash_write_block+0x98>
  102700:	00bffb44 	movi	r2,-19
  102704:	00008606 	br	102920 <alt_onchip_flash_write_block+0x2b0>
  102708:	e13ff817 	ldw	r4,-32(fp)
  10270c:	01030e40 	call	1030e4 <alt_onchip_flash_poll_for_status_to_go_idle>
  102710:	e0bff415 	stw	r2,-48(fp)
  102714:	e0bff417 	ldw	r2,-48(fp)
  102718:	10000226 	beq	r2,zero,102724 <alt_onchip_flash_write_block+0xb4>
  10271c:	e0bff417 	ldw	r2,-48(fp)
  102720:	00007f06 	br	102920 <alt_onchip_flash_write_block+0x2b0>
  102724:	e0bff817 	ldw	r2,-32(fp)
  102728:	10802f17 	ldw	r2,188(r2)
  10272c:	10c00104 	addi	r3,r2,4
  102730:	e0bff817 	ldw	r2,-32(fp)
  102734:	10802f17 	ldw	r2,188(r2)
  102738:	10800104 	addi	r2,r2,4
  10273c:	10800037 	ldwio	r2,0(r2)
  102740:	113c002c 	andhi	r4,r2,61440
  102744:	00802034 	movhi	r2,128
  102748:	10bfffc4 	addi	r2,r2,-1
  10274c:	2084b03a 	or	r2,r4,r2
  102750:	18800035 	stwio	r2,0(r3)
  102754:	00006406 	br	1028e8 <alt_onchip_flash_write_block+0x278>
  102758:	00bfffc4 	movi	r2,-1
  10275c:	e0bffb15 	stw	r2,-20(fp)
  102760:	e0bff617 	ldw	r2,-40(fp)
  102764:	108000cc 	andi	r2,r2,3
  102768:	10001d1e 	bne	r2,zero,1027e0 <alt_onchip_flash_write_block+0x170>
  10276c:	e0bff617 	ldw	r2,-40(fp)
  102770:	10c00104 	addi	r3,r2,4
  102774:	00bfff04 	movi	r2,-4
  102778:	1884703a 	and	r2,r3,r2
  10277c:	e0bff715 	stw	r2,-36(fp)
  102780:	e0fff717 	ldw	r3,-36(fp)
  102784:	e0bff617 	ldw	r2,-40(fp)
  102788:	1885c83a 	sub	r2,r3,r2
  10278c:	e0c00217 	ldw	r3,8(fp)
  102790:	1880010e 	bge	r3,r2,102798 <alt_onchip_flash_write_block+0x128>
  102794:	1805883a 	mov	r2,r3
  102798:	e0bff915 	stw	r2,-28(fp)
  10279c:	e0bff517 	ldw	r2,-44(fp)
  1027a0:	e0ffff17 	ldw	r3,-4(fp)
  1027a4:	1887883a 	add	r3,r3,r2
  1027a8:	e0bff917 	ldw	r2,-28(fp)
  1027ac:	e13ffb04 	addi	r4,fp,-20
  1027b0:	180b883a 	mov	r5,r3
  1027b4:	100d883a 	mov	r6,r2
  1027b8:	0103d640 	call	103d64 <memcpy>
  1027bc:	e0fff517 	ldw	r3,-44(fp)
  1027c0:	e0bff917 	ldw	r2,-28(fp)
  1027c4:	1885883a 	add	r2,r3,r2
  1027c8:	e0bff515 	stw	r2,-44(fp)
  1027cc:	e0c00217 	ldw	r3,8(fp)
  1027d0:	e0bff917 	ldw	r2,-28(fp)
  1027d4:	1885c83a 	sub	r2,r3,r2
  1027d8:	e0800215 	stw	r2,8(fp)
  1027dc:	00002e06 	br	102898 <alt_onchip_flash_write_block+0x228>
  1027e0:	e0bff617 	ldw	r2,-40(fp)
  1027e4:	108000cc 	andi	r2,r2,3
  1027e8:	e0bffa15 	stw	r2,-24(fp)
  1027ec:	e0fff617 	ldw	r3,-40(fp)
  1027f0:	e0bffa17 	ldw	r2,-24(fp)
  1027f4:	1885c83a 	sub	r2,r3,r2
  1027f8:	e0bff615 	stw	r2,-40(fp)
  1027fc:	e0bff617 	ldw	r2,-40(fp)
  102800:	10c00104 	addi	r3,r2,4
  102804:	00bfff04 	movi	r2,-4
  102808:	1884703a 	and	r2,r3,r2
  10280c:	e0bff715 	stw	r2,-36(fp)
  102810:	e0fff717 	ldw	r3,-36(fp)
  102814:	e0bff617 	ldw	r2,-40(fp)
  102818:	1889c83a 	sub	r4,r3,r2
  10281c:	e0c00217 	ldw	r3,8(fp)
  102820:	e0bffa17 	ldw	r2,-24(fp)
  102824:	1887883a 	add	r3,r3,r2
  102828:	2005883a 	mov	r2,r4
  10282c:	1880010e 	bge	r3,r2,102834 <alt_onchip_flash_write_block+0x1c4>
  102830:	1805883a 	mov	r2,r3
  102834:	e0bff915 	stw	r2,-28(fp)
  102838:	e0fffb04 	addi	r3,fp,-20
  10283c:	e0bffa17 	ldw	r2,-24(fp)
  102840:	1885883a 	add	r2,r3,r2
  102844:	1009883a 	mov	r4,r2
  102848:	e0bff517 	ldw	r2,-44(fp)
  10284c:	e0ffff17 	ldw	r3,-4(fp)
  102850:	188b883a 	add	r5,r3,r2
  102854:	e0fff917 	ldw	r3,-28(fp)
  102858:	e0bffa17 	ldw	r2,-24(fp)
  10285c:	1885c83a 	sub	r2,r3,r2
  102860:	100d883a 	mov	r6,r2
  102864:	0103d640 	call	103d64 <memcpy>
  102868:	e0fff917 	ldw	r3,-28(fp)
  10286c:	e0bffa17 	ldw	r2,-24(fp)
  102870:	1885c83a 	sub	r2,r3,r2
  102874:	e0fff517 	ldw	r3,-44(fp)
  102878:	1885883a 	add	r2,r3,r2
  10287c:	e0bff515 	stw	r2,-44(fp)
  102880:	e0fffa17 	ldw	r3,-24(fp)
  102884:	e0bff917 	ldw	r2,-28(fp)
  102888:	1885c83a 	sub	r2,r3,r2
  10288c:	e0c00217 	ldw	r3,8(fp)
  102890:	1885883a 	add	r2,r3,r2
  102894:	e0800215 	stw	r2,8(fp)
  102898:	e0bff817 	ldw	r2,-32(fp)
  10289c:	10c00a17 	ldw	r3,40(r2)
  1028a0:	e0bff617 	ldw	r2,-40(fp)
  1028a4:	1885883a 	add	r2,r3,r2
  1028a8:	e0fffb17 	ldw	r3,-20(fp)
  1028ac:	10c00035 	stwio	r3,0(r2)
  1028b0:	e13ff817 	ldw	r4,-32(fp)
  1028b4:	01030e40 	call	1030e4 <alt_onchip_flash_poll_for_status_to_go_idle>
  1028b8:	e0bff415 	stw	r2,-48(fp)
  1028bc:	e0bff417 	ldw	r2,-48(fp)
  1028c0:	10000126 	beq	r2,zero,1028c8 <alt_onchip_flash_write_block+0x258>
  1028c4:	00000a06 	br	1028f0 <alt_onchip_flash_write_block+0x280>
  1028c8:	e13ff817 	ldw	r4,-32(fp)
  1028cc:	01032040 	call	103204 <alt_onchip_flash_poll_for_status_write_passed>
  1028d0:	e0bff415 	stw	r2,-48(fp)
  1028d4:	e0bff417 	ldw	r2,-48(fp)
  1028d8:	10000126 	beq	r2,zero,1028e0 <alt_onchip_flash_write_block+0x270>
  1028dc:	00000406 	br	1028f0 <alt_onchip_flash_write_block+0x280>
  1028e0:	e0bff717 	ldw	r2,-36(fp)
  1028e4:	e0bff615 	stw	r2,-40(fp)
  1028e8:	e0800217 	ldw	r2,8(fp)
  1028ec:	103f9a1e 	bne	r2,zero,102758 <_gp+0xffef9f90>
  1028f0:	e0bff817 	ldw	r2,-32(fp)
  1028f4:	10802f17 	ldw	r2,188(r2)
  1028f8:	10c00104 	addi	r3,r2,4
  1028fc:	e0bff817 	ldw	r2,-32(fp)
  102900:	10802f17 	ldw	r2,188(r2)
  102904:	10800104 	addi	r2,r2,4
  102908:	11000037 	ldwio	r4,0(r2)
  10290c:	00840034 	movhi	r2,4096
  102910:	10bfffc4 	addi	r2,r2,-1
  102914:	2084b03a 	or	r2,r4,r2
  102918:	18800035 	stwio	r2,0(r3)
  10291c:	e0bff417 	ldw	r2,-48(fp)
  102920:	e037883a 	mov	sp,fp
  102924:	dfc00117 	ldw	ra,4(sp)
  102928:	df000017 	ldw	fp,0(sp)
  10292c:	dec00204 	addi	sp,sp,8
  102930:	f800283a 	ret

00102934 <alt_onchip_flash_write>:
  102934:	defff104 	addi	sp,sp,-60
  102938:	dfc00e15 	stw	ra,56(sp)
  10293c:	df000d15 	stw	fp,52(sp)
  102940:	df000d04 	addi	fp,sp,52
  102944:	e13ffc15 	stw	r4,-16(fp)
  102948:	e17ffd15 	stw	r5,-12(fp)
  10294c:	e1bffe15 	stw	r6,-8(fp)
  102950:	e1ffff15 	stw	r7,-4(fp)
  102954:	e03ff415 	stw	zero,-48(fp)
  102958:	e0bfff17 	ldw	r2,-4(fp)
  10295c:	e0bff815 	stw	r2,-32(fp)
  102960:	e0bffd17 	ldw	r2,-12(fp)
  102964:	e0bff915 	stw	r2,-28(fp)
  102968:	e0bffc17 	ldw	r2,-16(fp)
  10296c:	e0bffa15 	stw	r2,-24(fp)
  102970:	e0bffa17 	ldw	r2,-24(fp)
  102974:	10800b17 	ldw	r2,44(r2)
  102978:	e0fffd17 	ldw	r3,-12(fp)
  10297c:	1880060e 	bge	r3,r2,102998 <alt_onchip_flash_write+0x64>
  102980:	e0bffa17 	ldw	r2,-24(fp)
  102984:	10c00b17 	ldw	r3,44(r2)
  102988:	e0bffd17 	ldw	r2,-12(fp)
  10298c:	1887c83a 	sub	r3,r3,r2
  102990:	e0bfff17 	ldw	r2,-4(fp)
  102994:	1880020e 	bge	r3,r2,1029a0 <alt_onchip_flash_write+0x6c>
  102998:	00bffc84 	movi	r2,-14
  10299c:	00009606 	br	102bf8 <alt_onchip_flash_write+0x2c4>
  1029a0:	e03ff515 	stw	zero,-44(fp)
  1029a4:	00008706 	br	102bc4 <alt_onchip_flash_write+0x290>
  1029a8:	e0fffa17 	ldw	r3,-24(fp)
  1029ac:	e0bff517 	ldw	r2,-44(fp)
  1029b0:	1004913a 	slli	r2,r2,4
  1029b4:	10800d04 	addi	r2,r2,52
  1029b8:	1885883a 	add	r2,r3,r2
  1029bc:	10800017 	ldw	r2,0(r2)
  1029c0:	e0fffd17 	ldw	r3,-12(fp)
  1029c4:	18807c16 	blt	r3,r2,102bb8 <alt_onchip_flash_write+0x284>
  1029c8:	e0fffa17 	ldw	r3,-24(fp)
  1029cc:	e0bff517 	ldw	r2,-44(fp)
  1029d0:	1004913a 	slli	r2,r2,4
  1029d4:	10800d04 	addi	r2,r2,52
  1029d8:	1885883a 	add	r2,r3,r2
  1029dc:	10c00017 	ldw	r3,0(r2)
  1029e0:	e13ffa17 	ldw	r4,-24(fp)
  1029e4:	e0bff517 	ldw	r2,-44(fp)
  1029e8:	1004913a 	slli	r2,r2,4
  1029ec:	10800e04 	addi	r2,r2,56
  1029f0:	2085883a 	add	r2,r4,r2
  1029f4:	10800017 	ldw	r2,0(r2)
  1029f8:	1885883a 	add	r2,r3,r2
  1029fc:	e0fffd17 	ldw	r3,-12(fp)
  102a00:	18806d0e 	bge	r3,r2,102bb8 <alt_onchip_flash_write+0x284>
  102a04:	e0fffa17 	ldw	r3,-24(fp)
  102a08:	e0bff517 	ldw	r2,-44(fp)
  102a0c:	1004913a 	slli	r2,r2,4
  102a10:	10800d04 	addi	r2,r2,52
  102a14:	1885883a 	add	r2,r3,r2
  102a18:	10800017 	ldw	r2,0(r2)
  102a1c:	e0bff715 	stw	r2,-36(fp)
  102a20:	e03ff615 	stw	zero,-40(fp)
  102a24:	00005c06 	br	102b98 <alt_onchip_flash_write+0x264>
  102a28:	e0fffd17 	ldw	r3,-12(fp)
  102a2c:	e0bff717 	ldw	r2,-36(fp)
  102a30:	18804d16 	blt	r3,r2,102b68 <alt_onchip_flash_write+0x234>
  102a34:	e0fffa17 	ldw	r3,-24(fp)
  102a38:	e0bff517 	ldw	r2,-44(fp)
  102a3c:	10800104 	addi	r2,r2,4
  102a40:	1004913a 	slli	r2,r2,4
  102a44:	1885883a 	add	r2,r3,r2
  102a48:	10c00017 	ldw	r3,0(r2)
  102a4c:	e0bff717 	ldw	r2,-36(fp)
  102a50:	1885883a 	add	r2,r3,r2
  102a54:	e0fffd17 	ldw	r3,-12(fp)
  102a58:	1880430e 	bge	r3,r2,102b68 <alt_onchip_flash_write+0x234>
  102a5c:	e0fffa17 	ldw	r3,-24(fp)
  102a60:	e0bff517 	ldw	r2,-44(fp)
  102a64:	10800104 	addi	r2,r2,4
  102a68:	1004913a 	slli	r2,r2,4
  102a6c:	1885883a 	add	r2,r3,r2
  102a70:	10c00017 	ldw	r3,0(r2)
  102a74:	e0bff717 	ldw	r2,-36(fp)
  102a78:	1887883a 	add	r3,r3,r2
  102a7c:	e0bffd17 	ldw	r2,-12(fp)
  102a80:	1885c83a 	sub	r2,r3,r2
  102a84:	e0bffb15 	stw	r2,-20(fp)
  102a88:	e0fffb17 	ldw	r3,-20(fp)
  102a8c:	e0bfff17 	ldw	r2,-4(fp)
  102a90:	1880010e 	bge	r3,r2,102a98 <alt_onchip_flash_write+0x164>
  102a94:	1805883a 	mov	r2,r3
  102a98:	e0bffb15 	stw	r2,-20(fp)
  102a9c:	e0bffa17 	ldw	r2,-24(fp)
  102aa0:	10c00a17 	ldw	r3,40(r2)
  102aa4:	e0bffd17 	ldw	r2,-12(fp)
  102aa8:	1887883a 	add	r3,r3,r2
  102aac:	e0bffb17 	ldw	r2,-20(fp)
  102ab0:	e13ffe17 	ldw	r4,-8(fp)
  102ab4:	180b883a 	mov	r5,r3
  102ab8:	100d883a 	mov	r6,r2
  102abc:	0103ce80 	call	103ce8 <memcmp>
  102ac0:	10001326 	beq	r2,zero,102b10 <alt_onchip_flash_write+0x1dc>
  102ac4:	e0bffa17 	ldw	r2,-24(fp)
  102ac8:	10800817 	ldw	r2,32(r2)
  102acc:	e0fffa17 	ldw	r3,-24(fp)
  102ad0:	1809883a 	mov	r4,r3
  102ad4:	e17ff717 	ldw	r5,-36(fp)
  102ad8:	103ee83a 	callr	r2
  102adc:	e0bff415 	stw	r2,-48(fp)
  102ae0:	e0bff417 	ldw	r2,-48(fp)
  102ae4:	10000a1e 	bne	r2,zero,102b10 <alt_onchip_flash_write+0x1dc>
  102ae8:	e0bffa17 	ldw	r2,-24(fp)
  102aec:	10800917 	ldw	r2,36(r2)
  102af0:	e13ffa17 	ldw	r4,-24(fp)
  102af4:	e0fffb17 	ldw	r3,-20(fp)
  102af8:	d8c00015 	stw	r3,0(sp)
  102afc:	e17ff717 	ldw	r5,-36(fp)
  102b00:	e1bffd17 	ldw	r6,-12(fp)
  102b04:	e1fffe17 	ldw	r7,-8(fp)
  102b08:	103ee83a 	callr	r2
  102b0c:	e0bff415 	stw	r2,-48(fp)
  102b10:	e0ffff17 	ldw	r3,-4(fp)
  102b14:	e0bffb17 	ldw	r2,-20(fp)
  102b18:	18802e26 	beq	r3,r2,102bd4 <alt_onchip_flash_write+0x2a0>
  102b1c:	e0bff417 	ldw	r2,-48(fp)
  102b20:	10002c1e 	bne	r2,zero,102bd4 <alt_onchip_flash_write+0x2a0>
  102b24:	e0ffff17 	ldw	r3,-4(fp)
  102b28:	e0bffb17 	ldw	r2,-20(fp)
  102b2c:	1885c83a 	sub	r2,r3,r2
  102b30:	e0bfff15 	stw	r2,-4(fp)
  102b34:	e0fffa17 	ldw	r3,-24(fp)
  102b38:	e0bff517 	ldw	r2,-44(fp)
  102b3c:	10800104 	addi	r2,r2,4
  102b40:	1004913a 	slli	r2,r2,4
  102b44:	1885883a 	add	r2,r3,r2
  102b48:	10c00017 	ldw	r3,0(r2)
  102b4c:	e0bff717 	ldw	r2,-36(fp)
  102b50:	1885883a 	add	r2,r3,r2
  102b54:	e0bffd15 	stw	r2,-12(fp)
  102b58:	e0bffb17 	ldw	r2,-20(fp)
  102b5c:	e0fffe17 	ldw	r3,-8(fp)
  102b60:	1885883a 	add	r2,r3,r2
  102b64:	e0bffe15 	stw	r2,-8(fp)
  102b68:	e0fffa17 	ldw	r3,-24(fp)
  102b6c:	e0bff517 	ldw	r2,-44(fp)
  102b70:	10800104 	addi	r2,r2,4
  102b74:	1004913a 	slli	r2,r2,4
  102b78:	1885883a 	add	r2,r3,r2
  102b7c:	10800017 	ldw	r2,0(r2)
  102b80:	e0fff717 	ldw	r3,-36(fp)
  102b84:	1885883a 	add	r2,r3,r2
  102b88:	e0bff715 	stw	r2,-36(fp)
  102b8c:	e0bff617 	ldw	r2,-40(fp)
  102b90:	10800044 	addi	r2,r2,1
  102b94:	e0bff615 	stw	r2,-40(fp)
  102b98:	e0fffa17 	ldw	r3,-24(fp)
  102b9c:	e0bff517 	ldw	r2,-44(fp)
  102ba0:	1004913a 	slli	r2,r2,4
  102ba4:	10800f04 	addi	r2,r2,60
  102ba8:	1885883a 	add	r2,r3,r2
  102bac:	10800017 	ldw	r2,0(r2)
  102bb0:	e0fff617 	ldw	r3,-40(fp)
  102bb4:	18bf9c16 	blt	r3,r2,102a28 <_gp+0xffefa260>
  102bb8:	e0bff517 	ldw	r2,-44(fp)
  102bbc:	10800044 	addi	r2,r2,1
  102bc0:	e0bff515 	stw	r2,-44(fp)
  102bc4:	e0bffa17 	ldw	r2,-24(fp)
  102bc8:	10800c17 	ldw	r2,48(r2)
  102bcc:	e0fff517 	ldw	r3,-44(fp)
  102bd0:	18bf7516 	blt	r3,r2,1029a8 <_gp+0xffefa1e0>
  102bd4:	e0bffa17 	ldw	r2,-24(fp)
  102bd8:	10c00a17 	ldw	r3,40(r2)
  102bdc:	e0bff917 	ldw	r2,-28(fp)
  102be0:	1887883a 	add	r3,r3,r2
  102be4:	e0bff817 	ldw	r2,-32(fp)
  102be8:	1809883a 	mov	r4,r3
  102bec:	100b883a 	mov	r5,r2
  102bf0:	01035140 	call	103514 <alt_dcache_flush>
  102bf4:	e0bff417 	ldw	r2,-48(fp)
  102bf8:	e037883a 	mov	sp,fp
  102bfc:	dfc00117 	ldw	ra,4(sp)
  102c00:	df000017 	ldw	fp,0(sp)
  102c04:	dec00204 	addi	sp,sp,8
  102c08:	f800283a 	ret

00102c0c <altera_onchip_flash_init>:
  102c0c:	defff504 	addi	sp,sp,-44
  102c10:	dfc00a15 	stw	ra,40(sp)
  102c14:	df000915 	stw	fp,36(sp)
  102c18:	dc000815 	stw	r16,32(sp)
  102c1c:	df000904 	addi	fp,sp,36
  102c20:	e13ffe15 	stw	r4,-8(fp)
  102c24:	e03ff815 	stw	zero,-32(fp)
  102c28:	e03ff915 	stw	zero,-28(fp)
  102c2c:	e03ffa15 	stw	zero,-24(fp)
  102c30:	e03ffb15 	stw	zero,-20(fp)
  102c34:	e03ffc15 	stw	zero,-16(fp)
  102c38:	e03ff715 	stw	zero,-36(fp)
  102c3c:	e0bffe17 	ldw	r2,-8(fp)
  102c40:	10800d04 	addi	r2,r2,52
  102c44:	e0bffd15 	stw	r2,-12(fp)
  102c48:	e0bffe17 	ldw	r2,-8(fp)
  102c4c:	10802f17 	ldw	r2,188(r2)
  102c50:	10001926 	beq	r2,zero,102cb8 <altera_onchip_flash_init+0xac>
  102c54:	e0bffe17 	ldw	r2,-8(fp)
  102c58:	10802f17 	ldw	r2,188(r2)
  102c5c:	10800037 	ldwio	r2,0(r2)
  102c60:	1080080c 	andi	r2,r2,32
  102c64:	e0bff815 	stw	r2,-32(fp)
  102c68:	e0bffe17 	ldw	r2,-8(fp)
  102c6c:	10802f17 	ldw	r2,188(r2)
  102c70:	10800037 	ldwio	r2,0(r2)
  102c74:	1080100c 	andi	r2,r2,64
  102c78:	e0bff915 	stw	r2,-28(fp)
  102c7c:	e0bffe17 	ldw	r2,-8(fp)
  102c80:	10802f17 	ldw	r2,188(r2)
  102c84:	10800037 	ldwio	r2,0(r2)
  102c88:	1080200c 	andi	r2,r2,128
  102c8c:	e0bffa15 	stw	r2,-24(fp)
  102c90:	e0bffe17 	ldw	r2,-8(fp)
  102c94:	10802f17 	ldw	r2,188(r2)
  102c98:	10800037 	ldwio	r2,0(r2)
  102c9c:	1080400c 	andi	r2,r2,256
  102ca0:	e0bffb15 	stw	r2,-20(fp)
  102ca4:	e0bffe17 	ldw	r2,-8(fp)
  102ca8:	10802f17 	ldw	r2,188(r2)
  102cac:	10800037 	ldwio	r2,0(r2)
  102cb0:	1080800c 	andi	r2,r2,512
  102cb4:	e0bffc15 	stw	r2,-16(fp)
  102cb8:	e0bffe17 	ldw	r2,-8(fp)
  102cbc:	10803017 	ldw	r2,192(r2)
  102cc0:	10800058 	cmpnei	r2,r2,1
  102cc4:	10002f1e 	bne	r2,zero,102d84 <altera_onchip_flash_init+0x178>
  102cc8:	e0bff817 	ldw	r2,-32(fp)
  102ccc:	10800820 	cmpeqi	r2,r2,32
  102cd0:	10002c1e 	bne	r2,zero,102d84 <altera_onchip_flash_init+0x178>
  102cd4:	e0bff717 	ldw	r2,-36(fp)
  102cd8:	1004913a 	slli	r2,r2,4
  102cdc:	e0fffd17 	ldw	r3,-12(fp)
  102ce0:	1885883a 	add	r2,r3,r2
  102ce4:	e0fffe17 	ldw	r3,-8(fp)
  102ce8:	18c03117 	ldw	r3,196(r3)
  102cec:	10c00015 	stw	r3,0(r2)
  102cf0:	e0bff717 	ldw	r2,-36(fp)
  102cf4:	1004913a 	slli	r2,r2,4
  102cf8:	e0fffd17 	ldw	r3,-12(fp)
  102cfc:	1885883a 	add	r2,r3,r2
  102d00:	e0fffe17 	ldw	r3,-8(fp)
  102d04:	19003217 	ldw	r4,200(r3)
  102d08:	e0fffe17 	ldw	r3,-8(fp)
  102d0c:	18c03117 	ldw	r3,196(r3)
  102d10:	20c7c83a 	sub	r3,r4,r3
  102d14:	18c00044 	addi	r3,r3,1
  102d18:	10c00115 	stw	r3,4(r2)
  102d1c:	e0bff717 	ldw	r2,-36(fp)
  102d20:	1004913a 	slli	r2,r2,4
  102d24:	e0fffd17 	ldw	r3,-12(fp)
  102d28:	18a1883a 	add	r16,r3,r2
  102d2c:	e0fffe17 	ldw	r3,-8(fp)
  102d30:	e0bff717 	ldw	r2,-36(fp)
  102d34:	1004913a 	slli	r2,r2,4
  102d38:	10800e04 	addi	r2,r2,56
  102d3c:	1885883a 	add	r2,r3,r2
  102d40:	10c00017 	ldw	r3,0(r2)
  102d44:	e0bffe17 	ldw	r2,-8(fp)
  102d48:	10803f17 	ldw	r2,252(r2)
  102d4c:	1809883a 	mov	r4,r3
  102d50:	100b883a 	mov	r5,r2
  102d54:	010142c0 	call	10142c <__divsi3>
  102d58:	80800215 	stw	r2,8(r16)
  102d5c:	e0bff717 	ldw	r2,-36(fp)
  102d60:	1004913a 	slli	r2,r2,4
  102d64:	e0fffd17 	ldw	r3,-12(fp)
  102d68:	1885883a 	add	r2,r3,r2
  102d6c:	e0fffe17 	ldw	r3,-8(fp)
  102d70:	18c03f17 	ldw	r3,252(r3)
  102d74:	10c00315 	stw	r3,12(r2)
  102d78:	e0bff717 	ldw	r2,-36(fp)
  102d7c:	10800044 	addi	r2,r2,1
  102d80:	e0bff715 	stw	r2,-36(fp)
  102d84:	e0bffe17 	ldw	r2,-8(fp)
  102d88:	10803317 	ldw	r2,204(r2)
  102d8c:	10800058 	cmpnei	r2,r2,1
  102d90:	10002f1e 	bne	r2,zero,102e50 <altera_onchip_flash_init+0x244>
  102d94:	e0bff917 	ldw	r2,-28(fp)
  102d98:	10801020 	cmpeqi	r2,r2,64
  102d9c:	10002c1e 	bne	r2,zero,102e50 <altera_onchip_flash_init+0x244>
  102da0:	e0bff717 	ldw	r2,-36(fp)
  102da4:	1004913a 	slli	r2,r2,4
  102da8:	e0fffd17 	ldw	r3,-12(fp)
  102dac:	1885883a 	add	r2,r3,r2
  102db0:	e0fffe17 	ldw	r3,-8(fp)
  102db4:	18c03417 	ldw	r3,208(r3)
  102db8:	10c00015 	stw	r3,0(r2)
  102dbc:	e0bff717 	ldw	r2,-36(fp)
  102dc0:	1004913a 	slli	r2,r2,4
  102dc4:	e0fffd17 	ldw	r3,-12(fp)
  102dc8:	1885883a 	add	r2,r3,r2
  102dcc:	e0fffe17 	ldw	r3,-8(fp)
  102dd0:	19003517 	ldw	r4,212(r3)
  102dd4:	e0fffe17 	ldw	r3,-8(fp)
  102dd8:	18c03417 	ldw	r3,208(r3)
  102ddc:	20c7c83a 	sub	r3,r4,r3
  102de0:	18c00044 	addi	r3,r3,1
  102de4:	10c00115 	stw	r3,4(r2)
  102de8:	e0bff717 	ldw	r2,-36(fp)
  102dec:	1004913a 	slli	r2,r2,4
  102df0:	e0fffd17 	ldw	r3,-12(fp)
  102df4:	18a1883a 	add	r16,r3,r2
  102df8:	e0fffe17 	ldw	r3,-8(fp)
  102dfc:	e0bff717 	ldw	r2,-36(fp)
  102e00:	1004913a 	slli	r2,r2,4
  102e04:	10800e04 	addi	r2,r2,56
  102e08:	1885883a 	add	r2,r3,r2
  102e0c:	10c00017 	ldw	r3,0(r2)
  102e10:	e0bffe17 	ldw	r2,-8(fp)
  102e14:	10803f17 	ldw	r2,252(r2)
  102e18:	1809883a 	mov	r4,r3
  102e1c:	100b883a 	mov	r5,r2
  102e20:	010142c0 	call	10142c <__divsi3>
  102e24:	80800215 	stw	r2,8(r16)
  102e28:	e0bff717 	ldw	r2,-36(fp)
  102e2c:	1004913a 	slli	r2,r2,4
  102e30:	e0fffd17 	ldw	r3,-12(fp)
  102e34:	1885883a 	add	r2,r3,r2
  102e38:	e0fffe17 	ldw	r3,-8(fp)
  102e3c:	18c03f17 	ldw	r3,252(r3)
  102e40:	10c00315 	stw	r3,12(r2)
  102e44:	e0bff717 	ldw	r2,-36(fp)
  102e48:	10800044 	addi	r2,r2,1
  102e4c:	e0bff715 	stw	r2,-36(fp)
  102e50:	e0bffe17 	ldw	r2,-8(fp)
  102e54:	10803617 	ldw	r2,216(r2)
  102e58:	10800058 	cmpnei	r2,r2,1
  102e5c:	10002f1e 	bne	r2,zero,102f1c <altera_onchip_flash_init+0x310>
  102e60:	e0bffa17 	ldw	r2,-24(fp)
  102e64:	10802020 	cmpeqi	r2,r2,128
  102e68:	10002c1e 	bne	r2,zero,102f1c <altera_onchip_flash_init+0x310>
  102e6c:	e0bff717 	ldw	r2,-36(fp)
  102e70:	1004913a 	slli	r2,r2,4
  102e74:	e0fffd17 	ldw	r3,-12(fp)
  102e78:	1885883a 	add	r2,r3,r2
  102e7c:	e0fffe17 	ldw	r3,-8(fp)
  102e80:	18c03717 	ldw	r3,220(r3)
  102e84:	10c00015 	stw	r3,0(r2)
  102e88:	e0bff717 	ldw	r2,-36(fp)
  102e8c:	1004913a 	slli	r2,r2,4
  102e90:	e0fffd17 	ldw	r3,-12(fp)
  102e94:	1885883a 	add	r2,r3,r2
  102e98:	e0fffe17 	ldw	r3,-8(fp)
  102e9c:	19003817 	ldw	r4,224(r3)
  102ea0:	e0fffe17 	ldw	r3,-8(fp)
  102ea4:	18c03717 	ldw	r3,220(r3)
  102ea8:	20c7c83a 	sub	r3,r4,r3
  102eac:	18c00044 	addi	r3,r3,1
  102eb0:	10c00115 	stw	r3,4(r2)
  102eb4:	e0bff717 	ldw	r2,-36(fp)
  102eb8:	1004913a 	slli	r2,r2,4
  102ebc:	e0fffd17 	ldw	r3,-12(fp)
  102ec0:	18a1883a 	add	r16,r3,r2
  102ec4:	e0fffe17 	ldw	r3,-8(fp)
  102ec8:	e0bff717 	ldw	r2,-36(fp)
  102ecc:	1004913a 	slli	r2,r2,4
  102ed0:	10800e04 	addi	r2,r2,56
  102ed4:	1885883a 	add	r2,r3,r2
  102ed8:	10c00017 	ldw	r3,0(r2)
  102edc:	e0bffe17 	ldw	r2,-8(fp)
  102ee0:	10803f17 	ldw	r2,252(r2)
  102ee4:	1809883a 	mov	r4,r3
  102ee8:	100b883a 	mov	r5,r2
  102eec:	010142c0 	call	10142c <__divsi3>
  102ef0:	80800215 	stw	r2,8(r16)
  102ef4:	e0bff717 	ldw	r2,-36(fp)
  102ef8:	1004913a 	slli	r2,r2,4
  102efc:	e0fffd17 	ldw	r3,-12(fp)
  102f00:	1885883a 	add	r2,r3,r2
  102f04:	e0fffe17 	ldw	r3,-8(fp)
  102f08:	18c03f17 	ldw	r3,252(r3)
  102f0c:	10c00315 	stw	r3,12(r2)
  102f10:	e0bff717 	ldw	r2,-36(fp)
  102f14:	10800044 	addi	r2,r2,1
  102f18:	e0bff715 	stw	r2,-36(fp)
  102f1c:	e0bffe17 	ldw	r2,-8(fp)
  102f20:	10803917 	ldw	r2,228(r2)
  102f24:	10800058 	cmpnei	r2,r2,1
  102f28:	10002f1e 	bne	r2,zero,102fe8 <altera_onchip_flash_init+0x3dc>
  102f2c:	e0bffb17 	ldw	r2,-20(fp)
  102f30:	10804020 	cmpeqi	r2,r2,256
  102f34:	10002c1e 	bne	r2,zero,102fe8 <altera_onchip_flash_init+0x3dc>
  102f38:	e0bff717 	ldw	r2,-36(fp)
  102f3c:	1004913a 	slli	r2,r2,4
  102f40:	e0fffd17 	ldw	r3,-12(fp)
  102f44:	1885883a 	add	r2,r3,r2
  102f48:	e0fffe17 	ldw	r3,-8(fp)
  102f4c:	18c03a17 	ldw	r3,232(r3)
  102f50:	10c00015 	stw	r3,0(r2)
  102f54:	e0bff717 	ldw	r2,-36(fp)
  102f58:	1004913a 	slli	r2,r2,4
  102f5c:	e0fffd17 	ldw	r3,-12(fp)
  102f60:	1885883a 	add	r2,r3,r2
  102f64:	e0fffe17 	ldw	r3,-8(fp)
  102f68:	19003b17 	ldw	r4,236(r3)
  102f6c:	e0fffe17 	ldw	r3,-8(fp)
  102f70:	18c03a17 	ldw	r3,232(r3)
  102f74:	20c7c83a 	sub	r3,r4,r3
  102f78:	18c00044 	addi	r3,r3,1
  102f7c:	10c00115 	stw	r3,4(r2)
  102f80:	e0bff717 	ldw	r2,-36(fp)
  102f84:	1004913a 	slli	r2,r2,4
  102f88:	e0fffd17 	ldw	r3,-12(fp)
  102f8c:	18a1883a 	add	r16,r3,r2
  102f90:	e0fffe17 	ldw	r3,-8(fp)
  102f94:	e0bff717 	ldw	r2,-36(fp)
  102f98:	1004913a 	slli	r2,r2,4
  102f9c:	10800e04 	addi	r2,r2,56
  102fa0:	1885883a 	add	r2,r3,r2
  102fa4:	10c00017 	ldw	r3,0(r2)
  102fa8:	e0bffe17 	ldw	r2,-8(fp)
  102fac:	10803f17 	ldw	r2,252(r2)
  102fb0:	1809883a 	mov	r4,r3
  102fb4:	100b883a 	mov	r5,r2
  102fb8:	010142c0 	call	10142c <__divsi3>
  102fbc:	80800215 	stw	r2,8(r16)
  102fc0:	e0bff717 	ldw	r2,-36(fp)
  102fc4:	1004913a 	slli	r2,r2,4
  102fc8:	e0fffd17 	ldw	r3,-12(fp)
  102fcc:	1885883a 	add	r2,r3,r2
  102fd0:	e0fffe17 	ldw	r3,-8(fp)
  102fd4:	18c03f17 	ldw	r3,252(r3)
  102fd8:	10c00315 	stw	r3,12(r2)
  102fdc:	e0bff717 	ldw	r2,-36(fp)
  102fe0:	10800044 	addi	r2,r2,1
  102fe4:	e0bff715 	stw	r2,-36(fp)
  102fe8:	e0bffe17 	ldw	r2,-8(fp)
  102fec:	10803c17 	ldw	r2,240(r2)
  102ff0:	10800058 	cmpnei	r2,r2,1
  102ff4:	10002f1e 	bne	r2,zero,1030b4 <altera_onchip_flash_init+0x4a8>
  102ff8:	e0bffc17 	ldw	r2,-16(fp)
  102ffc:	10808020 	cmpeqi	r2,r2,512
  103000:	10002c1e 	bne	r2,zero,1030b4 <altera_onchip_flash_init+0x4a8>
  103004:	e0bff717 	ldw	r2,-36(fp)
  103008:	1004913a 	slli	r2,r2,4
  10300c:	e0fffd17 	ldw	r3,-12(fp)
  103010:	1885883a 	add	r2,r3,r2
  103014:	e0fffe17 	ldw	r3,-8(fp)
  103018:	18c03d17 	ldw	r3,244(r3)
  10301c:	10c00015 	stw	r3,0(r2)
  103020:	e0bff717 	ldw	r2,-36(fp)
  103024:	1004913a 	slli	r2,r2,4
  103028:	e0fffd17 	ldw	r3,-12(fp)
  10302c:	1885883a 	add	r2,r3,r2
  103030:	e0fffe17 	ldw	r3,-8(fp)
  103034:	19003e17 	ldw	r4,248(r3)
  103038:	e0fffe17 	ldw	r3,-8(fp)
  10303c:	18c03d17 	ldw	r3,244(r3)
  103040:	20c7c83a 	sub	r3,r4,r3
  103044:	18c00044 	addi	r3,r3,1
  103048:	10c00115 	stw	r3,4(r2)
  10304c:	e0bff717 	ldw	r2,-36(fp)
  103050:	1004913a 	slli	r2,r2,4
  103054:	e0fffd17 	ldw	r3,-12(fp)
  103058:	18a1883a 	add	r16,r3,r2
  10305c:	e0fffe17 	ldw	r3,-8(fp)
  103060:	e0bff717 	ldw	r2,-36(fp)
  103064:	1004913a 	slli	r2,r2,4
  103068:	10800e04 	addi	r2,r2,56
  10306c:	1885883a 	add	r2,r3,r2
  103070:	10c00017 	ldw	r3,0(r2)
  103074:	e0bffe17 	ldw	r2,-8(fp)
  103078:	10803f17 	ldw	r2,252(r2)
  10307c:	1809883a 	mov	r4,r3
  103080:	100b883a 	mov	r5,r2
  103084:	010142c0 	call	10142c <__divsi3>
  103088:	80800215 	stw	r2,8(r16)
  10308c:	e0bff717 	ldw	r2,-36(fp)
  103090:	1004913a 	slli	r2,r2,4
  103094:	e0fffd17 	ldw	r3,-12(fp)
  103098:	1885883a 	add	r2,r3,r2
  10309c:	e0fffe17 	ldw	r3,-8(fp)
  1030a0:	18c03f17 	ldw	r3,252(r3)
  1030a4:	10c00315 	stw	r3,12(r2)
  1030a8:	e0bff717 	ldw	r2,-36(fp)
  1030ac:	10800044 	addi	r2,r2,1
  1030b0:	e0bff715 	stw	r2,-36(fp)
  1030b4:	e0bffe17 	ldw	r2,-8(fp)
  1030b8:	e0fff717 	ldw	r3,-36(fp)
  1030bc:	10c00c15 	stw	r3,48(r2)
  1030c0:	e0bffe17 	ldw	r2,-8(fp)
  1030c4:	1009883a 	mov	r4,r2
  1030c8:	01023680 	call	102368 <alt_flash_device_register>
  1030cc:	e6ffff04 	addi	sp,fp,-4
  1030d0:	dfc00217 	ldw	ra,8(sp)
  1030d4:	df000117 	ldw	fp,4(sp)
  1030d8:	dc000017 	ldw	r16,0(sp)
  1030dc:	dec00304 	addi	sp,sp,12
  1030e0:	f800283a 	ret

001030e4 <alt_onchip_flash_poll_for_status_to_go_idle>:
  1030e4:	defffa04 	addi	sp,sp,-24
  1030e8:	dfc00515 	stw	ra,20(sp)
  1030ec:	df000415 	stw	fp,16(sp)
  1030f0:	df000404 	addi	fp,sp,16
  1030f4:	e13fff15 	stw	r4,-4(fp)
  1030f8:	e03ffc15 	stw	zero,-16(fp)
  1030fc:	008002f4 	movhi	r2,11
  103100:	10ab9804 	addi	r2,r2,-20896
  103104:	e0bffe15 	stw	r2,-8(fp)
  103108:	008002f4 	movhi	r2,11
  10310c:	10ab9804 	addi	r2,r2,-20896
  103110:	e0bffd15 	stw	r2,-12(fp)
  103114:	00000c06 	br	103148 <alt_onchip_flash_poll_for_status_to_go_idle+0x64>
  103118:	01000044 	movi	r4,1
  10311c:	01032940 	call	103294 <alt_busy_sleep>
  103120:	e0bffe17 	ldw	r2,-8(fp)
  103124:	10000826 	beq	r2,zero,103148 <alt_onchip_flash_poll_for_status_to_go_idle+0x64>
  103128:	e0bffd17 	ldw	r2,-12(fp)
  10312c:	10bfffc4 	addi	r2,r2,-1
  103130:	e0bffd15 	stw	r2,-12(fp)
  103134:	e0bffd17 	ldw	r2,-12(fp)
  103138:	1000031e 	bne	r2,zero,103148 <alt_onchip_flash_poll_for_status_to_go_idle+0x64>
  10313c:	00bfe304 	movi	r2,-116
  103140:	e0bffc15 	stw	r2,-16(fp)
  103144:	00000506 	br	10315c <alt_onchip_flash_poll_for_status_to_go_idle+0x78>
  103148:	e0bfff17 	ldw	r2,-4(fp)
  10314c:	10802f17 	ldw	r2,188(r2)
  103150:	10800037 	ldwio	r2,0(r2)
  103154:	108000cc 	andi	r2,r2,3
  103158:	103fef1e 	bne	r2,zero,103118 <_gp+0xffefa950>
  10315c:	e0bffc17 	ldw	r2,-16(fp)
  103160:	e037883a 	mov	sp,fp
  103164:	dfc00117 	ldw	ra,4(sp)
  103168:	df000017 	ldw	fp,0(sp)
  10316c:	dec00204 	addi	sp,sp,8
  103170:	f800283a 	ret

00103174 <alt_onchip_flash_poll_for_status_erase_passed>:
  103174:	defffa04 	addi	sp,sp,-24
  103178:	dfc00515 	stw	ra,20(sp)
  10317c:	df000415 	stw	fp,16(sp)
  103180:	df000404 	addi	fp,sp,16
  103184:	e13fff15 	stw	r4,-4(fp)
  103188:	e03ffc15 	stw	zero,-16(fp)
  10318c:	008002f4 	movhi	r2,11
  103190:	10ab9804 	addi	r2,r2,-20896
  103194:	e0bffe15 	stw	r2,-8(fp)
  103198:	008002f4 	movhi	r2,11
  10319c:	10ab9804 	addi	r2,r2,-20896
  1031a0:	e0bffd15 	stw	r2,-12(fp)
  1031a4:	00000c06 	br	1031d8 <alt_onchip_flash_poll_for_status_erase_passed+0x64>
  1031a8:	01000044 	movi	r4,1
  1031ac:	01032940 	call	103294 <alt_busy_sleep>
  1031b0:	e0bffe17 	ldw	r2,-8(fp)
  1031b4:	10000826 	beq	r2,zero,1031d8 <alt_onchip_flash_poll_for_status_erase_passed+0x64>
  1031b8:	e0bffd17 	ldw	r2,-12(fp)
  1031bc:	10bfffc4 	addi	r2,r2,-1
  1031c0:	e0bffd15 	stw	r2,-12(fp)
  1031c4:	e0bffd17 	ldw	r2,-12(fp)
  1031c8:	1000031e 	bne	r2,zero,1031d8 <alt_onchip_flash_poll_for_status_erase_passed+0x64>
  1031cc:	00bfe304 	movi	r2,-116
  1031d0:	e0bffc15 	stw	r2,-16(fp)
  1031d4:	00000506 	br	1031ec <alt_onchip_flash_poll_for_status_erase_passed+0x78>
  1031d8:	e0bfff17 	ldw	r2,-4(fp)
  1031dc:	10802f17 	ldw	r2,188(r2)
  1031e0:	10800037 	ldwio	r2,0(r2)
  1031e4:	1080040c 	andi	r2,r2,16
  1031e8:	103fef26 	beq	r2,zero,1031a8 <_gp+0xffefa9e0>
  1031ec:	e0bffc17 	ldw	r2,-16(fp)
  1031f0:	e037883a 	mov	sp,fp
  1031f4:	dfc00117 	ldw	ra,4(sp)
  1031f8:	df000017 	ldw	fp,0(sp)
  1031fc:	dec00204 	addi	sp,sp,8
  103200:	f800283a 	ret

00103204 <alt_onchip_flash_poll_for_status_write_passed>:
  103204:	defffa04 	addi	sp,sp,-24
  103208:	dfc00515 	stw	ra,20(sp)
  10320c:	df000415 	stw	fp,16(sp)
  103210:	df000404 	addi	fp,sp,16
  103214:	e13fff15 	stw	r4,-4(fp)
  103218:	e03ffc15 	stw	zero,-16(fp)
  10321c:	008002f4 	movhi	r2,11
  103220:	10ab9804 	addi	r2,r2,-20896
  103224:	e0bffe15 	stw	r2,-8(fp)
  103228:	008002f4 	movhi	r2,11
  10322c:	10ab9804 	addi	r2,r2,-20896
  103230:	e0bffd15 	stw	r2,-12(fp)
  103234:	00000c06 	br	103268 <alt_onchip_flash_poll_for_status_write_passed+0x64>
  103238:	01000044 	movi	r4,1
  10323c:	01032940 	call	103294 <alt_busy_sleep>
  103240:	e0bffe17 	ldw	r2,-8(fp)
  103244:	10000826 	beq	r2,zero,103268 <alt_onchip_flash_poll_for_status_write_passed+0x64>
  103248:	e0bffd17 	ldw	r2,-12(fp)
  10324c:	10bfffc4 	addi	r2,r2,-1
  103250:	e0bffd15 	stw	r2,-12(fp)
  103254:	e0bffd17 	ldw	r2,-12(fp)
  103258:	1000031e 	bne	r2,zero,103268 <alt_onchip_flash_poll_for_status_write_passed+0x64>
  10325c:	00bfe304 	movi	r2,-116
  103260:	e0bffc15 	stw	r2,-16(fp)
  103264:	00000506 	br	10327c <alt_onchip_flash_poll_for_status_write_passed+0x78>
  103268:	e0bfff17 	ldw	r2,-4(fp)
  10326c:	10802f17 	ldw	r2,188(r2)
  103270:	10800037 	ldwio	r2,0(r2)
  103274:	1080020c 	andi	r2,r2,8
  103278:	103fef26 	beq	r2,zero,103238 <_gp+0xffefaa70>
  10327c:	e0bffc17 	ldw	r2,-16(fp)
  103280:	e037883a 	mov	sp,fp
  103284:	dfc00117 	ldw	ra,4(sp)
  103288:	df000017 	ldw	fp,0(sp)
  10328c:	dec00204 	addi	sp,sp,8
  103290:	f800283a 	ret

00103294 <alt_busy_sleep>:
  103294:	defffa04 	addi	sp,sp,-24
  103298:	dfc00515 	stw	ra,20(sp)
  10329c:	df000415 	stw	fp,16(sp)
  1032a0:	df000404 	addi	fp,sp,16
  1032a4:	e13fff15 	stw	r4,-4(fp)
  1032a8:	00800244 	movi	r2,9
  1032ac:	e0bffd15 	stw	r2,-12(fp)
  1032b0:	e13ffd17 	ldw	r4,-12(fp)
  1032b4:	014003f4 	movhi	r5,15
  1032b8:	29509004 	addi	r5,r5,16960
  1032bc:	01014ec0 	call	1014ec <__mulsi3>
  1032c0:	01007574 	movhi	r4,469
  1032c4:	21300004 	addi	r4,r4,-16384
  1032c8:	100b883a 	mov	r5,r2
  1032cc:	01014dc0 	call	1014dc <__udivsi3>
  1032d0:	01200034 	movhi	r4,32768
  1032d4:	213fffc4 	addi	r4,r4,-1
  1032d8:	100b883a 	mov	r5,r2
  1032dc:	01014dc0 	call	1014dc <__udivsi3>
  1032e0:	e13fff17 	ldw	r4,-4(fp)
  1032e4:	100b883a 	mov	r5,r2
  1032e8:	01014dc0 	call	1014dc <__udivsi3>
  1032ec:	e0bffe15 	stw	r2,-8(fp)
  1032f0:	e0bffe17 	ldw	r2,-8(fp)
  1032f4:	10002a26 	beq	r2,zero,1033a0 <alt_busy_sleep+0x10c>
  1032f8:	e03ffc15 	stw	zero,-16(fp)
  1032fc:	00001706 	br	10335c <alt_busy_sleep+0xc8>
  103300:	00a00034 	movhi	r2,32768
  103304:	10bfffc4 	addi	r2,r2,-1
  103308:	10bfffc4 	addi	r2,r2,-1
  10330c:	103ffe1e 	bne	r2,zero,103308 <_gp+0xffefab40>
  103310:	e13ffd17 	ldw	r4,-12(fp)
  103314:	014003f4 	movhi	r5,15
  103318:	29509004 	addi	r5,r5,16960
  10331c:	01014ec0 	call	1014ec <__mulsi3>
  103320:	01007574 	movhi	r4,469
  103324:	21300004 	addi	r4,r4,-16384
  103328:	100b883a 	mov	r5,r2
  10332c:	01014dc0 	call	1014dc <__udivsi3>
  103330:	01200034 	movhi	r4,32768
  103334:	213fffc4 	addi	r4,r4,-1
  103338:	100b883a 	mov	r5,r2
  10333c:	01014dc0 	call	1014dc <__udivsi3>
  103340:	1007883a 	mov	r3,r2
  103344:	e0bfff17 	ldw	r2,-4(fp)
  103348:	10c5c83a 	sub	r2,r2,r3
  10334c:	e0bfff15 	stw	r2,-4(fp)
  103350:	e0bffc17 	ldw	r2,-16(fp)
  103354:	10800044 	addi	r2,r2,1
  103358:	e0bffc15 	stw	r2,-16(fp)
  10335c:	e0fffc17 	ldw	r3,-16(fp)
  103360:	e0bffe17 	ldw	r2,-8(fp)
  103364:	18bfe616 	blt	r3,r2,103300 <_gp+0xffefab38>
  103368:	e13ffd17 	ldw	r4,-12(fp)
  10336c:	014003f4 	movhi	r5,15
  103370:	29509004 	addi	r5,r5,16960
  103374:	01014ec0 	call	1014ec <__mulsi3>
  103378:	01007574 	movhi	r4,469
  10337c:	21300004 	addi	r4,r4,-16384
  103380:	100b883a 	mov	r5,r2
  103384:	01014dc0 	call	1014dc <__udivsi3>
  103388:	1009883a 	mov	r4,r2
  10338c:	e17fff17 	ldw	r5,-4(fp)
  103390:	01014ec0 	call	1014ec <__mulsi3>
  103394:	10bfffc4 	addi	r2,r2,-1
  103398:	103ffe1e 	bne	r2,zero,103394 <_gp+0xffefabcc>
  10339c:	00000d06 	br	1033d4 <alt_busy_sleep+0x140>
  1033a0:	e13ffd17 	ldw	r4,-12(fp)
  1033a4:	014003f4 	movhi	r5,15
  1033a8:	29509004 	addi	r5,r5,16960
  1033ac:	01014ec0 	call	1014ec <__mulsi3>
  1033b0:	01007574 	movhi	r4,469
  1033b4:	21300004 	addi	r4,r4,-16384
  1033b8:	100b883a 	mov	r5,r2
  1033bc:	01014dc0 	call	1014dc <__udivsi3>
  1033c0:	1009883a 	mov	r4,r2
  1033c4:	e17fff17 	ldw	r5,-4(fp)
  1033c8:	01014ec0 	call	1014ec <__mulsi3>
  1033cc:	10bfffc4 	addi	r2,r2,-1
  1033d0:	00bffe16 	blt	zero,r2,1033cc <_gp+0xffefac04>
  1033d4:	0005883a 	mov	r2,zero
  1033d8:	e037883a 	mov	sp,fp
  1033dc:	dfc00117 	ldw	ra,4(sp)
  1033e0:	df000017 	ldw	fp,0(sp)
  1033e4:	dec00204 	addi	sp,sp,8
  1033e8:	f800283a 	ret

001033ec <alt_get_errno>:
  1033ec:	defffe04 	addi	sp,sp,-8
  1033f0:	dfc00115 	stw	ra,4(sp)
  1033f4:	df000015 	stw	fp,0(sp)
  1033f8:	d839883a 	mov	fp,sp
  1033fc:	00800834 	movhi	r2,32
  103400:	1081fd04 	addi	r2,r2,2036
  103404:	10800017 	ldw	r2,0(r2)
  103408:	10000526 	beq	r2,zero,103420 <alt_get_errno+0x34>
  10340c:	00800834 	movhi	r2,32
  103410:	1081fd04 	addi	r2,r2,2036
  103414:	10800017 	ldw	r2,0(r2)
  103418:	103ee83a 	callr	r2
  10341c:	00000206 	br	103428 <alt_get_errno+0x3c>
  103420:	00800834 	movhi	r2,32
  103424:	10821504 	addi	r2,r2,2132
  103428:	e037883a 	mov	sp,fp
  10342c:	dfc00117 	ldw	ra,4(sp)
  103430:	df000017 	ldw	fp,0(sp)
  103434:	dec00204 	addi	sp,sp,8
  103438:	f800283a 	ret

0010343c <close>:
  10343c:	defffb04 	addi	sp,sp,-20
  103440:	dfc00415 	stw	ra,16(sp)
  103444:	df000315 	stw	fp,12(sp)
  103448:	df000304 	addi	fp,sp,12
  10344c:	e13fff15 	stw	r4,-4(fp)
  103450:	e0bfff17 	ldw	r2,-4(fp)
  103454:	10000816 	blt	r2,zero,103478 <close+0x3c>
  103458:	e13fff17 	ldw	r4,-4(fp)
  10345c:	01400304 	movi	r5,12
  103460:	01014ec0 	call	1014ec <__mulsi3>
  103464:	1007883a 	mov	r3,r2
  103468:	00800834 	movhi	r2,32
  10346c:	10808904 	addi	r2,r2,548
  103470:	1885883a 	add	r2,r3,r2
  103474:	00000106 	br	10347c <close+0x40>
  103478:	0005883a 	mov	r2,zero
  10347c:	e0bffd15 	stw	r2,-12(fp)
  103480:	e0bffd17 	ldw	r2,-12(fp)
  103484:	10001926 	beq	r2,zero,1034ec <close+0xb0>
  103488:	e0bffd17 	ldw	r2,-12(fp)
  10348c:	10800017 	ldw	r2,0(r2)
  103490:	10800417 	ldw	r2,16(r2)
  103494:	10000626 	beq	r2,zero,1034b0 <close+0x74>
  103498:	e0bffd17 	ldw	r2,-12(fp)
  10349c:	10800017 	ldw	r2,0(r2)
  1034a0:	10800417 	ldw	r2,16(r2)
  1034a4:	e13ffd17 	ldw	r4,-12(fp)
  1034a8:	103ee83a 	callr	r2
  1034ac:	00000106 	br	1034b4 <close+0x78>
  1034b0:	0005883a 	mov	r2,zero
  1034b4:	e0bffe15 	stw	r2,-8(fp)
  1034b8:	e13fff17 	ldw	r4,-4(fp)
  1034bc:	0103ad00 	call	103ad0 <alt_release_fd>
  1034c0:	e0bffe17 	ldw	r2,-8(fp)
  1034c4:	1000070e 	bge	r2,zero,1034e4 <close+0xa8>
  1034c8:	01033ec0 	call	1033ec <alt_get_errno>
  1034cc:	1007883a 	mov	r3,r2
  1034d0:	e0bffe17 	ldw	r2,-8(fp)
  1034d4:	0085c83a 	sub	r2,zero,r2
  1034d8:	18800015 	stw	r2,0(r3)
  1034dc:	00bfffc4 	movi	r2,-1
  1034e0:	00000706 	br	103500 <close+0xc4>
  1034e4:	0005883a 	mov	r2,zero
  1034e8:	00000506 	br	103500 <close+0xc4>
  1034ec:	01033ec0 	call	1033ec <alt_get_errno>
  1034f0:	1007883a 	mov	r3,r2
  1034f4:	00801444 	movi	r2,81
  1034f8:	18800015 	stw	r2,0(r3)
  1034fc:	00bfffc4 	movi	r2,-1
  103500:	e037883a 	mov	sp,fp
  103504:	dfc00117 	ldw	ra,4(sp)
  103508:	df000017 	ldw	fp,0(sp)
  10350c:	dec00204 	addi	sp,sp,8
  103510:	f800283a 	ret

00103514 <alt_dcache_flush>:
  103514:	defffd04 	addi	sp,sp,-12
  103518:	df000215 	stw	fp,8(sp)
  10351c:	df000204 	addi	fp,sp,8
  103520:	e13ffe15 	stw	r4,-8(fp)
  103524:	e17fff15 	stw	r5,-4(fp)
  103528:	e037883a 	mov	sp,fp
  10352c:	df000017 	ldw	fp,0(sp)
  103530:	dec00104 	addi	sp,sp,4
  103534:	f800283a 	ret

00103538 <alt_dcache_flush_all>:
  103538:	deffff04 	addi	sp,sp,-4
  10353c:	df000015 	stw	fp,0(sp)
  103540:	d839883a 	mov	fp,sp
  103544:	e037883a 	mov	sp,fp
  103548:	df000017 	ldw	fp,0(sp)
  10354c:	dec00104 	addi	sp,sp,4
  103550:	f800283a 	ret

00103554 <alt_dev_null_write>:
  103554:	defffc04 	addi	sp,sp,-16
  103558:	df000315 	stw	fp,12(sp)
  10355c:	df000304 	addi	fp,sp,12
  103560:	e13ffd15 	stw	r4,-12(fp)
  103564:	e17ffe15 	stw	r5,-8(fp)
  103568:	e1bfff15 	stw	r6,-4(fp)
  10356c:	e0bfff17 	ldw	r2,-4(fp)
  103570:	e037883a 	mov	sp,fp
  103574:	df000017 	ldw	fp,0(sp)
  103578:	dec00104 	addi	sp,sp,4
  10357c:	f800283a 	ret

00103580 <alt_get_errno>:
  103580:	defffe04 	addi	sp,sp,-8
  103584:	dfc00115 	stw	ra,4(sp)
  103588:	df000015 	stw	fp,0(sp)
  10358c:	d839883a 	mov	fp,sp
  103590:	00800834 	movhi	r2,32
  103594:	1081fd04 	addi	r2,r2,2036
  103598:	10800017 	ldw	r2,0(r2)
  10359c:	10000526 	beq	r2,zero,1035b4 <alt_get_errno+0x34>
  1035a0:	00800834 	movhi	r2,32
  1035a4:	1081fd04 	addi	r2,r2,2036
  1035a8:	10800017 	ldw	r2,0(r2)
  1035ac:	103ee83a 	callr	r2
  1035b0:	00000206 	br	1035bc <alt_get_errno+0x3c>
  1035b4:	00800834 	movhi	r2,32
  1035b8:	10821504 	addi	r2,r2,2132
  1035bc:	e037883a 	mov	sp,fp
  1035c0:	dfc00117 	ldw	ra,4(sp)
  1035c4:	df000017 	ldw	fp,0(sp)
  1035c8:	dec00204 	addi	sp,sp,8
  1035cc:	f800283a 	ret

001035d0 <alt_dev_llist_insert>:
  1035d0:	defffa04 	addi	sp,sp,-24
  1035d4:	dfc00515 	stw	ra,20(sp)
  1035d8:	df000415 	stw	fp,16(sp)
  1035dc:	df000404 	addi	fp,sp,16
  1035e0:	e13ffe15 	stw	r4,-8(fp)
  1035e4:	e17fff15 	stw	r5,-4(fp)
  1035e8:	e0bffe17 	ldw	r2,-8(fp)
  1035ec:	10000326 	beq	r2,zero,1035fc <alt_dev_llist_insert+0x2c>
  1035f0:	e0bffe17 	ldw	r2,-8(fp)
  1035f4:	10800217 	ldw	r2,8(r2)
  1035f8:	1000061e 	bne	r2,zero,103614 <alt_dev_llist_insert+0x44>
  1035fc:	01035800 	call	103580 <alt_get_errno>
  103600:	1007883a 	mov	r3,r2
  103604:	00800584 	movi	r2,22
  103608:	18800015 	stw	r2,0(r3)
  10360c:	00bffa84 	movi	r2,-22
  103610:	00001306 	br	103660 <alt_dev_llist_insert+0x90>
  103614:	e0bffe17 	ldw	r2,-8(fp)
  103618:	e0ffff17 	ldw	r3,-4(fp)
  10361c:	e0fffc15 	stw	r3,-16(fp)
  103620:	e0bffd15 	stw	r2,-12(fp)
  103624:	e0bffd17 	ldw	r2,-12(fp)
  103628:	e0fffc17 	ldw	r3,-16(fp)
  10362c:	10c00115 	stw	r3,4(r2)
  103630:	e0bffc17 	ldw	r2,-16(fp)
  103634:	10c00017 	ldw	r3,0(r2)
  103638:	e0bffd17 	ldw	r2,-12(fp)
  10363c:	10c00015 	stw	r3,0(r2)
  103640:	e0bffc17 	ldw	r2,-16(fp)
  103644:	10800017 	ldw	r2,0(r2)
  103648:	e0fffd17 	ldw	r3,-12(fp)
  10364c:	10c00115 	stw	r3,4(r2)
  103650:	e0bffc17 	ldw	r2,-16(fp)
  103654:	e0fffd17 	ldw	r3,-12(fp)
  103658:	10c00015 	stw	r3,0(r2)
  10365c:	0005883a 	mov	r2,zero
  103660:	e037883a 	mov	sp,fp
  103664:	dfc00117 	ldw	ra,4(sp)
  103668:	df000017 	ldw	fp,0(sp)
  10366c:	dec00204 	addi	sp,sp,8
  103670:	f800283a 	ret

00103674 <_do_ctors>:
  103674:	defffd04 	addi	sp,sp,-12
  103678:	dfc00215 	stw	ra,8(sp)
  10367c:	df000115 	stw	fp,4(sp)
  103680:	df000104 	addi	fp,sp,4
  103684:	00800434 	movhi	r2,16
  103688:	10908304 	addi	r2,r2,16908
  10368c:	e0bfff15 	stw	r2,-4(fp)
  103690:	00000606 	br	1036ac <_do_ctors+0x38>
  103694:	e0bfff17 	ldw	r2,-4(fp)
  103698:	10800017 	ldw	r2,0(r2)
  10369c:	103ee83a 	callr	r2
  1036a0:	e0bfff17 	ldw	r2,-4(fp)
  1036a4:	10bfff04 	addi	r2,r2,-4
  1036a8:	e0bfff15 	stw	r2,-4(fp)
  1036ac:	e0ffff17 	ldw	r3,-4(fp)
  1036b0:	00800434 	movhi	r2,16
  1036b4:	10908404 	addi	r2,r2,16912
  1036b8:	18bff62e 	bgeu	r3,r2,103694 <_gp+0xffefaecc>
  1036bc:	e037883a 	mov	sp,fp
  1036c0:	dfc00117 	ldw	ra,4(sp)
  1036c4:	df000017 	ldw	fp,0(sp)
  1036c8:	dec00204 	addi	sp,sp,8
  1036cc:	f800283a 	ret

001036d0 <_do_dtors>:
  1036d0:	defffd04 	addi	sp,sp,-12
  1036d4:	dfc00215 	stw	ra,8(sp)
  1036d8:	df000115 	stw	fp,4(sp)
  1036dc:	df000104 	addi	fp,sp,4
  1036e0:	00800434 	movhi	r2,16
  1036e4:	10908304 	addi	r2,r2,16908
  1036e8:	e0bfff15 	stw	r2,-4(fp)
  1036ec:	00000606 	br	103708 <_do_dtors+0x38>
  1036f0:	e0bfff17 	ldw	r2,-4(fp)
  1036f4:	10800017 	ldw	r2,0(r2)
  1036f8:	103ee83a 	callr	r2
  1036fc:	e0bfff17 	ldw	r2,-4(fp)
  103700:	10bfff04 	addi	r2,r2,-4
  103704:	e0bfff15 	stw	r2,-4(fp)
  103708:	e0ffff17 	ldw	r3,-4(fp)
  10370c:	00800434 	movhi	r2,16
  103710:	10908404 	addi	r2,r2,16912
  103714:	18bff62e 	bgeu	r3,r2,1036f0 <_gp+0xffefaf28>
  103718:	e037883a 	mov	sp,fp
  10371c:	dfc00117 	ldw	ra,4(sp)
  103720:	df000017 	ldw	fp,0(sp)
  103724:	dec00204 	addi	sp,sp,8
  103728:	f800283a 	ret

0010372c <alt_flash_open_dev>:
  10372c:	defffc04 	addi	sp,sp,-16
  103730:	dfc00315 	stw	ra,12(sp)
  103734:	df000215 	stw	fp,8(sp)
  103738:	df000204 	addi	fp,sp,8
  10373c:	e13fff15 	stw	r4,-4(fp)
  103740:	e13fff17 	ldw	r4,-4(fp)
  103744:	d1600c04 	addi	r5,gp,-32720
  103748:	0103b700 	call	103b70 <alt_find_dev>
  10374c:	e0bffe15 	stw	r2,-8(fp)
  103750:	e0bffe17 	ldw	r2,-8(fp)
  103754:	10000926 	beq	r2,zero,10377c <alt_flash_open_dev+0x50>
  103758:	e0bffe17 	ldw	r2,-8(fp)
  10375c:	10800317 	ldw	r2,12(r2)
  103760:	10000626 	beq	r2,zero,10377c <alt_flash_open_dev+0x50>
  103764:	e0bffe17 	ldw	r2,-8(fp)
  103768:	10800317 	ldw	r2,12(r2)
  10376c:	e13ffe17 	ldw	r4,-8(fp)
  103770:	e17fff17 	ldw	r5,-4(fp)
  103774:	103ee83a 	callr	r2
  103778:	00000106 	br	103780 <alt_flash_open_dev+0x54>
  10377c:	e0bffe17 	ldw	r2,-8(fp)
  103780:	e037883a 	mov	sp,fp
  103784:	dfc00117 	ldw	ra,4(sp)
  103788:	df000017 	ldw	fp,0(sp)
  10378c:	dec00204 	addi	sp,sp,8
  103790:	f800283a 	ret

00103794 <alt_flash_close_dev>:
  103794:	defffd04 	addi	sp,sp,-12
  103798:	dfc00215 	stw	ra,8(sp)
  10379c:	df000115 	stw	fp,4(sp)
  1037a0:	df000104 	addi	fp,sp,4
  1037a4:	e13fff15 	stw	r4,-4(fp)
  1037a8:	e0bfff17 	ldw	r2,-4(fp)
  1037ac:	10000726 	beq	r2,zero,1037cc <alt_flash_close_dev+0x38>
  1037b0:	e0bfff17 	ldw	r2,-4(fp)
  1037b4:	10800417 	ldw	r2,16(r2)
  1037b8:	10000426 	beq	r2,zero,1037cc <alt_flash_close_dev+0x38>
  1037bc:	e0bfff17 	ldw	r2,-4(fp)
  1037c0:	10800417 	ldw	r2,16(r2)
  1037c4:	e13fff17 	ldw	r4,-4(fp)
  1037c8:	103ee83a 	callr	r2
  1037cc:	0001883a 	nop
  1037d0:	e037883a 	mov	sp,fp
  1037d4:	dfc00117 	ldw	ra,4(sp)
  1037d8:	df000017 	ldw	fp,0(sp)
  1037dc:	dec00204 	addi	sp,sp,8
  1037e0:	f800283a 	ret

001037e4 <alt_icache_flush_all>:
  1037e4:	deffff04 	addi	sp,sp,-4
  1037e8:	df000015 	stw	fp,0(sp)
  1037ec:	d839883a 	mov	fp,sp
  1037f0:	e037883a 	mov	sp,fp
  1037f4:	df000017 	ldw	fp,0(sp)
  1037f8:	dec00104 	addi	sp,sp,4
  1037fc:	f800283a 	ret

00103800 <alt_ic_isr_register>:
  103800:	defff904 	addi	sp,sp,-28
  103804:	dfc00615 	stw	ra,24(sp)
  103808:	df000515 	stw	fp,20(sp)
  10380c:	df000504 	addi	fp,sp,20
  103810:	e13ffc15 	stw	r4,-16(fp)
  103814:	e17ffd15 	stw	r5,-12(fp)
  103818:	e1bffe15 	stw	r6,-8(fp)
  10381c:	e1ffff15 	stw	r7,-4(fp)
  103820:	e0800217 	ldw	r2,8(fp)
  103824:	d8800015 	stw	r2,0(sp)
  103828:	e13ffc17 	ldw	r4,-16(fp)
  10382c:	e17ffd17 	ldw	r5,-12(fp)
  103830:	e1bffe17 	ldw	r6,-8(fp)
  103834:	e1ffff17 	ldw	r7,-4(fp)
  103838:	01039e00 	call	1039e0 <alt_iic_isr_register>
  10383c:	e037883a 	mov	sp,fp
  103840:	dfc00117 	ldw	ra,4(sp)
  103844:	df000017 	ldw	fp,0(sp)
  103848:	dec00204 	addi	sp,sp,8
  10384c:	f800283a 	ret

00103850 <alt_ic_irq_enable>:
  103850:	defff904 	addi	sp,sp,-28
  103854:	df000615 	stw	fp,24(sp)
  103858:	df000604 	addi	fp,sp,24
  10385c:	e13ffe15 	stw	r4,-8(fp)
  103860:	e17fff15 	stw	r5,-4(fp)
  103864:	e0bfff17 	ldw	r2,-4(fp)
  103868:	e0bffa15 	stw	r2,-24(fp)
  10386c:	0005303a 	rdctl	r2,status
  103870:	e0bffb15 	stw	r2,-20(fp)
  103874:	e0fffb17 	ldw	r3,-20(fp)
  103878:	00bfff84 	movi	r2,-2
  10387c:	1884703a 	and	r2,r3,r2
  103880:	1001703a 	wrctl	status,r2
  103884:	e0bffb17 	ldw	r2,-20(fp)
  103888:	e0bffc15 	stw	r2,-16(fp)
  10388c:	e0bffa17 	ldw	r2,-24(fp)
  103890:	00c00044 	movi	r3,1
  103894:	1884983a 	sll	r2,r3,r2
  103898:	1007883a 	mov	r3,r2
  10389c:	00800834 	movhi	r2,32
  1038a0:	10821304 	addi	r2,r2,2124
  1038a4:	10800017 	ldw	r2,0(r2)
  1038a8:	1886b03a 	or	r3,r3,r2
  1038ac:	00800834 	movhi	r2,32
  1038b0:	10821304 	addi	r2,r2,2124
  1038b4:	10c00015 	stw	r3,0(r2)
  1038b8:	00800834 	movhi	r2,32
  1038bc:	10821304 	addi	r2,r2,2124
  1038c0:	10800017 	ldw	r2,0(r2)
  1038c4:	100170fa 	wrctl	ienable,r2
  1038c8:	e0bffc17 	ldw	r2,-16(fp)
  1038cc:	e0bffd15 	stw	r2,-12(fp)
  1038d0:	e0bffd17 	ldw	r2,-12(fp)
  1038d4:	1001703a 	wrctl	status,r2
  1038d8:	0005883a 	mov	r2,zero
  1038dc:	0001883a 	nop
  1038e0:	e037883a 	mov	sp,fp
  1038e4:	df000017 	ldw	fp,0(sp)
  1038e8:	dec00104 	addi	sp,sp,4
  1038ec:	f800283a 	ret

001038f0 <alt_ic_irq_disable>:
  1038f0:	defff904 	addi	sp,sp,-28
  1038f4:	df000615 	stw	fp,24(sp)
  1038f8:	df000604 	addi	fp,sp,24
  1038fc:	e13ffe15 	stw	r4,-8(fp)
  103900:	e17fff15 	stw	r5,-4(fp)
  103904:	e0bfff17 	ldw	r2,-4(fp)
  103908:	e0bffa15 	stw	r2,-24(fp)
  10390c:	0005303a 	rdctl	r2,status
  103910:	e0bffb15 	stw	r2,-20(fp)
  103914:	e0fffb17 	ldw	r3,-20(fp)
  103918:	00bfff84 	movi	r2,-2
  10391c:	1884703a 	and	r2,r3,r2
  103920:	1001703a 	wrctl	status,r2
  103924:	e0bffb17 	ldw	r2,-20(fp)
  103928:	e0bffc15 	stw	r2,-16(fp)
  10392c:	e0bffa17 	ldw	r2,-24(fp)
  103930:	00c00044 	movi	r3,1
  103934:	1884983a 	sll	r2,r3,r2
  103938:	0084303a 	nor	r2,zero,r2
  10393c:	1007883a 	mov	r3,r2
  103940:	00800834 	movhi	r2,32
  103944:	10821304 	addi	r2,r2,2124
  103948:	10800017 	ldw	r2,0(r2)
  10394c:	1886703a 	and	r3,r3,r2
  103950:	00800834 	movhi	r2,32
  103954:	10821304 	addi	r2,r2,2124
  103958:	10c00015 	stw	r3,0(r2)
  10395c:	00800834 	movhi	r2,32
  103960:	10821304 	addi	r2,r2,2124
  103964:	10800017 	ldw	r2,0(r2)
  103968:	100170fa 	wrctl	ienable,r2
  10396c:	e0bffc17 	ldw	r2,-16(fp)
  103970:	e0bffd15 	stw	r2,-12(fp)
  103974:	e0bffd17 	ldw	r2,-12(fp)
  103978:	1001703a 	wrctl	status,r2
  10397c:	0005883a 	mov	r2,zero
  103980:	0001883a 	nop
  103984:	e037883a 	mov	sp,fp
  103988:	df000017 	ldw	fp,0(sp)
  10398c:	dec00104 	addi	sp,sp,4
  103990:	f800283a 	ret

00103994 <alt_ic_irq_enabled>:
  103994:	defffc04 	addi	sp,sp,-16
  103998:	df000315 	stw	fp,12(sp)
  10399c:	df000304 	addi	fp,sp,12
  1039a0:	e13ffe15 	stw	r4,-8(fp)
  1039a4:	e17fff15 	stw	r5,-4(fp)
  1039a8:	000530fa 	rdctl	r2,ienable
  1039ac:	e0bffd15 	stw	r2,-12(fp)
  1039b0:	e0bfff17 	ldw	r2,-4(fp)
  1039b4:	00c00044 	movi	r3,1
  1039b8:	1884983a 	sll	r2,r3,r2
  1039bc:	1007883a 	mov	r3,r2
  1039c0:	e0bffd17 	ldw	r2,-12(fp)
  1039c4:	1884703a 	and	r2,r3,r2
  1039c8:	1004c03a 	cmpne	r2,r2,zero
  1039cc:	10803fcc 	andi	r2,r2,255
  1039d0:	e037883a 	mov	sp,fp
  1039d4:	df000017 	ldw	fp,0(sp)
  1039d8:	dec00104 	addi	sp,sp,4
  1039dc:	f800283a 	ret

001039e0 <alt_iic_isr_register>:
  1039e0:	defff504 	addi	sp,sp,-44
  1039e4:	dfc00a15 	stw	ra,40(sp)
  1039e8:	df000915 	stw	fp,36(sp)
  1039ec:	df000904 	addi	fp,sp,36
  1039f0:	e13ffc15 	stw	r4,-16(fp)
  1039f4:	e17ffd15 	stw	r5,-12(fp)
  1039f8:	e1bffe15 	stw	r6,-8(fp)
  1039fc:	e1ffff15 	stw	r7,-4(fp)
  103a00:	00bffa84 	movi	r2,-22
  103a04:	e0bff715 	stw	r2,-36(fp)
  103a08:	e0bffd17 	ldw	r2,-12(fp)
  103a0c:	e0bff815 	stw	r2,-32(fp)
  103a10:	e0bff817 	ldw	r2,-32(fp)
  103a14:	10800808 	cmpgei	r2,r2,32
  103a18:	1000271e 	bne	r2,zero,103ab8 <alt_iic_isr_register+0xd8>
  103a1c:	0005303a 	rdctl	r2,status
  103a20:	e0bffa15 	stw	r2,-24(fp)
  103a24:	e0fffa17 	ldw	r3,-24(fp)
  103a28:	00bfff84 	movi	r2,-2
  103a2c:	1884703a 	and	r2,r3,r2
  103a30:	1001703a 	wrctl	status,r2
  103a34:	e0bffa17 	ldw	r2,-24(fp)
  103a38:	e0bff915 	stw	r2,-28(fp)
  103a3c:	00800834 	movhi	r2,32
  103a40:	10827604 	addi	r2,r2,2520
  103a44:	e0fff817 	ldw	r3,-32(fp)
  103a48:	180690fa 	slli	r3,r3,3
  103a4c:	10c5883a 	add	r2,r2,r3
  103a50:	e0fffe17 	ldw	r3,-8(fp)
  103a54:	10c00015 	stw	r3,0(r2)
  103a58:	00800834 	movhi	r2,32
  103a5c:	10827604 	addi	r2,r2,2520
  103a60:	e0fff817 	ldw	r3,-32(fp)
  103a64:	180690fa 	slli	r3,r3,3
  103a68:	18c00104 	addi	r3,r3,4
  103a6c:	10c5883a 	add	r2,r2,r3
  103a70:	e0ffff17 	ldw	r3,-4(fp)
  103a74:	10c00015 	stw	r3,0(r2)
  103a78:	e0bffe17 	ldw	r2,-8(fp)
  103a7c:	10000526 	beq	r2,zero,103a94 <alt_iic_isr_register+0xb4>
  103a80:	e0bff817 	ldw	r2,-32(fp)
  103a84:	e13ffc17 	ldw	r4,-16(fp)
  103a88:	100b883a 	mov	r5,r2
  103a8c:	01038500 	call	103850 <alt_ic_irq_enable>
  103a90:	00000406 	br	103aa4 <alt_iic_isr_register+0xc4>
  103a94:	e0bff817 	ldw	r2,-32(fp)
  103a98:	e13ffc17 	ldw	r4,-16(fp)
  103a9c:	100b883a 	mov	r5,r2
  103aa0:	01038f00 	call	1038f0 <alt_ic_irq_disable>
  103aa4:	e0bff715 	stw	r2,-36(fp)
  103aa8:	e0bff917 	ldw	r2,-28(fp)
  103aac:	e0bffb15 	stw	r2,-20(fp)
  103ab0:	e0bffb17 	ldw	r2,-20(fp)
  103ab4:	1001703a 	wrctl	status,r2
  103ab8:	e0bff717 	ldw	r2,-36(fp)
  103abc:	e037883a 	mov	sp,fp
  103ac0:	dfc00117 	ldw	ra,4(sp)
  103ac4:	df000017 	ldw	fp,0(sp)
  103ac8:	dec00204 	addi	sp,sp,8
  103acc:	f800283a 	ret

00103ad0 <alt_release_fd>:
  103ad0:	defffc04 	addi	sp,sp,-16
  103ad4:	dfc00315 	stw	ra,12(sp)
  103ad8:	df000215 	stw	fp,8(sp)
  103adc:	dc000115 	stw	r16,4(sp)
  103ae0:	df000204 	addi	fp,sp,8
  103ae4:	e13ffe15 	stw	r4,-8(fp)
  103ae8:	e0bffe17 	ldw	r2,-8(fp)
  103aec:	108000d0 	cmplti	r2,r2,3
  103af0:	1000111e 	bne	r2,zero,103b38 <alt_release_fd+0x68>
  103af4:	04000834 	movhi	r16,32
  103af8:	84008904 	addi	r16,r16,548
  103afc:	e0bffe17 	ldw	r2,-8(fp)
  103b00:	1009883a 	mov	r4,r2
  103b04:	01400304 	movi	r5,12
  103b08:	01014ec0 	call	1014ec <__mulsi3>
  103b0c:	10800204 	addi	r2,r2,8
  103b10:	8085883a 	add	r2,r16,r2
  103b14:	10000015 	stw	zero,0(r2)
  103b18:	04000834 	movhi	r16,32
  103b1c:	84008904 	addi	r16,r16,548
  103b20:	e0bffe17 	ldw	r2,-8(fp)
  103b24:	1009883a 	mov	r4,r2
  103b28:	01400304 	movi	r5,12
  103b2c:	01014ec0 	call	1014ec <__mulsi3>
  103b30:	8085883a 	add	r2,r16,r2
  103b34:	10000015 	stw	zero,0(r2)
  103b38:	e6ffff04 	addi	sp,fp,-4
  103b3c:	dfc00217 	ldw	ra,8(sp)
  103b40:	df000117 	ldw	fp,4(sp)
  103b44:	dc000017 	ldw	r16,0(sp)
  103b48:	dec00304 	addi	sp,sp,12
  103b4c:	f800283a 	ret

00103b50 <altera_nios2_gen2_irq_init>:
  103b50:	deffff04 	addi	sp,sp,-4
  103b54:	df000015 	stw	fp,0(sp)
  103b58:	d839883a 	mov	fp,sp
  103b5c:	000170fa 	wrctl	ienable,zero
  103b60:	e037883a 	mov	sp,fp
  103b64:	df000017 	ldw	fp,0(sp)
  103b68:	dec00104 	addi	sp,sp,4
  103b6c:	f800283a 	ret

00103b70 <alt_find_dev>:
  103b70:	defffa04 	addi	sp,sp,-24
  103b74:	dfc00515 	stw	ra,20(sp)
  103b78:	df000415 	stw	fp,16(sp)
  103b7c:	df000404 	addi	fp,sp,16
  103b80:	e13ffe15 	stw	r4,-8(fp)
  103b84:	e17fff15 	stw	r5,-4(fp)
  103b88:	e0bfff17 	ldw	r2,-4(fp)
  103b8c:	10800017 	ldw	r2,0(r2)
  103b90:	e0bffc15 	stw	r2,-16(fp)
  103b94:	e13ffe17 	ldw	r4,-8(fp)
  103b98:	0103e9c0 	call	103e9c <strlen>
  103b9c:	10800044 	addi	r2,r2,1
  103ba0:	e0bffd15 	stw	r2,-12(fp)
  103ba4:	00000d06 	br	103bdc <alt_find_dev+0x6c>
  103ba8:	e0bffc17 	ldw	r2,-16(fp)
  103bac:	10c00217 	ldw	r3,8(r2)
  103bb0:	e0bffd17 	ldw	r2,-12(fp)
  103bb4:	1809883a 	mov	r4,r3
  103bb8:	e17ffe17 	ldw	r5,-8(fp)
  103bbc:	100d883a 	mov	r6,r2
  103bc0:	0103ce80 	call	103ce8 <memcmp>
  103bc4:	1000021e 	bne	r2,zero,103bd0 <alt_find_dev+0x60>
  103bc8:	e0bffc17 	ldw	r2,-16(fp)
  103bcc:	00000706 	br	103bec <alt_find_dev+0x7c>
  103bd0:	e0bffc17 	ldw	r2,-16(fp)
  103bd4:	10800017 	ldw	r2,0(r2)
  103bd8:	e0bffc15 	stw	r2,-16(fp)
  103bdc:	e0fffc17 	ldw	r3,-16(fp)
  103be0:	e0bfff17 	ldw	r2,-4(fp)
  103be4:	18bff01e 	bne	r3,r2,103ba8 <_gp+0xffefb3e0>
  103be8:	0005883a 	mov	r2,zero
  103bec:	e037883a 	mov	sp,fp
  103bf0:	dfc00117 	ldw	ra,4(sp)
  103bf4:	df000017 	ldw	fp,0(sp)
  103bf8:	dec00204 	addi	sp,sp,8
  103bfc:	f800283a 	ret

00103c00 <alt_exception_cause_generated_bad_addr>:
  103c00:	defffe04 	addi	sp,sp,-8
  103c04:	df000115 	stw	fp,4(sp)
  103c08:	df000104 	addi	fp,sp,4
  103c0c:	e13fff15 	stw	r4,-4(fp)
  103c10:	e0bfff17 	ldw	r2,-4(fp)
  103c14:	10bffe84 	addi	r2,r2,-6
  103c18:	10c00428 	cmpgeui	r3,r2,16
  103c1c:	18001a1e 	bne	r3,zero,103c88 <alt_exception_cause_generated_bad_addr+0x88>
  103c20:	100690ba 	slli	r3,r2,2
  103c24:	00800434 	movhi	r2,16
  103c28:	108f0e04 	addi	r2,r2,15416
  103c2c:	1885883a 	add	r2,r3,r2
  103c30:	10800017 	ldw	r2,0(r2)
  103c34:	1000683a 	jmp	r2
  103c38:	00103c78 	rdprs	zero,zero,16625
  103c3c:	00103c78 	rdprs	zero,zero,16625
  103c40:	00103c88 	cmpgei	zero,zero,16626
  103c44:	00103c88 	cmpgei	zero,zero,16626
  103c48:	00103c88 	cmpgei	zero,zero,16626
  103c4c:	00103c78 	rdprs	zero,zero,16625
  103c50:	00103c80 	call	103c8 <__alt_mem_onchip_flash_0_data-0xefc38>
  103c54:	00103c88 	cmpgei	zero,zero,16626
  103c58:	00103c78 	rdprs	zero,zero,16625
  103c5c:	00103c78 	rdprs	zero,zero,16625
  103c60:	00103c88 	cmpgei	zero,zero,16626
  103c64:	00103c78 	rdprs	zero,zero,16625
  103c68:	00103c80 	call	103c8 <__alt_mem_onchip_flash_0_data-0xefc38>
  103c6c:	00103c88 	cmpgei	zero,zero,16626
  103c70:	00103c88 	cmpgei	zero,zero,16626
  103c74:	00103c78 	rdprs	zero,zero,16625
  103c78:	00800044 	movi	r2,1
  103c7c:	00000306 	br	103c8c <alt_exception_cause_generated_bad_addr+0x8c>
  103c80:	0005883a 	mov	r2,zero
  103c84:	00000106 	br	103c8c <alt_exception_cause_generated_bad_addr+0x8c>
  103c88:	0005883a 	mov	r2,zero
  103c8c:	e037883a 	mov	sp,fp
  103c90:	df000017 	ldw	fp,0(sp)
  103c94:	dec00104 	addi	sp,sp,4
  103c98:	f800283a 	ret

00103c9c <atexit>:
  103c9c:	200b883a 	mov	r5,r4
  103ca0:	000d883a 	mov	r6,zero
  103ca4:	0009883a 	mov	r4,zero
  103ca8:	000f883a 	mov	r7,zero
  103cac:	0103f341 	jmpi	103f34 <__register_exitproc>

00103cb0 <exit>:
  103cb0:	defffe04 	addi	sp,sp,-8
  103cb4:	000b883a 	mov	r5,zero
  103cb8:	dc000015 	stw	r16,0(sp)
  103cbc:	dfc00115 	stw	ra,4(sp)
  103cc0:	2021883a 	mov	r16,r4
  103cc4:	01040480 	call	104048 <__call_exitprocs>
  103cc8:	00800834 	movhi	r2,32
  103ccc:	10820104 	addi	r2,r2,2052
  103cd0:	11000017 	ldw	r4,0(r2)
  103cd4:	20800f17 	ldw	r2,60(r4)
  103cd8:	10000126 	beq	r2,zero,103ce0 <exit+0x30>
  103cdc:	103ee83a 	callr	r2
  103ce0:	8009883a 	mov	r4,r16
  103ce4:	01041dc0 	call	1041dc <_exit>

00103ce8 <memcmp>:
  103ce8:	01c000c4 	movi	r7,3
  103cec:	3980192e 	bgeu	r7,r6,103d54 <memcmp+0x6c>
  103cf0:	2144b03a 	or	r2,r4,r5
  103cf4:	11c4703a 	and	r2,r2,r7
  103cf8:	10000f26 	beq	r2,zero,103d38 <memcmp+0x50>
  103cfc:	20800003 	ldbu	r2,0(r4)
  103d00:	28c00003 	ldbu	r3,0(r5)
  103d04:	10c0151e 	bne	r2,r3,103d5c <memcmp+0x74>
  103d08:	31bfff84 	addi	r6,r6,-2
  103d0c:	01ffffc4 	movi	r7,-1
  103d10:	00000406 	br	103d24 <memcmp+0x3c>
  103d14:	20800003 	ldbu	r2,0(r4)
  103d18:	28c00003 	ldbu	r3,0(r5)
  103d1c:	31bfffc4 	addi	r6,r6,-1
  103d20:	10c00e1e 	bne	r2,r3,103d5c <memcmp+0x74>
  103d24:	21000044 	addi	r4,r4,1
  103d28:	29400044 	addi	r5,r5,1
  103d2c:	31fff91e 	bne	r6,r7,103d14 <_gp+0xffefb54c>
  103d30:	0005883a 	mov	r2,zero
  103d34:	f800283a 	ret
  103d38:	20c00017 	ldw	r3,0(r4)
  103d3c:	28800017 	ldw	r2,0(r5)
  103d40:	1880041e 	bne	r3,r2,103d54 <memcmp+0x6c>
  103d44:	31bfff04 	addi	r6,r6,-4
  103d48:	21000104 	addi	r4,r4,4
  103d4c:	29400104 	addi	r5,r5,4
  103d50:	39bff936 	bltu	r7,r6,103d38 <_gp+0xffefb570>
  103d54:	303fe91e 	bne	r6,zero,103cfc <_gp+0xffefb534>
  103d58:	003ff506 	br	103d30 <_gp+0xffefb568>
  103d5c:	10c5c83a 	sub	r2,r2,r3
  103d60:	f800283a 	ret

00103d64 <memcpy>:
  103d64:	deffff04 	addi	sp,sp,-4
  103d68:	dc000015 	stw	r16,0(sp)
  103d6c:	00c003c4 	movi	r3,15
  103d70:	2005883a 	mov	r2,r4
  103d74:	1980432e 	bgeu	r3,r6,103e84 <memcpy+0x120>
  103d78:	2146b03a 	or	r3,r4,r5
  103d7c:	18c000cc 	andi	r3,r3,3
  103d80:	1800421e 	bne	r3,zero,103e8c <memcpy+0x128>
  103d84:	343ffc04 	addi	r16,r6,-16
  103d88:	8020d13a 	srli	r16,r16,4
  103d8c:	28c00104 	addi	r3,r5,4
  103d90:	23400104 	addi	r13,r4,4
  103d94:	801e913a 	slli	r15,r16,4
  103d98:	2b000204 	addi	r12,r5,8
  103d9c:	22c00204 	addi	r11,r4,8
  103da0:	7bc00504 	addi	r15,r15,20
  103da4:	2a800304 	addi	r10,r5,12
  103da8:	22400304 	addi	r9,r4,12
  103dac:	2bdf883a 	add	r15,r5,r15
  103db0:	2811883a 	mov	r8,r5
  103db4:	200f883a 	mov	r7,r4
  103db8:	41000017 	ldw	r4,0(r8)
  103dbc:	39c00404 	addi	r7,r7,16
  103dc0:	18c00404 	addi	r3,r3,16
  103dc4:	393ffc15 	stw	r4,-16(r7)
  103dc8:	1bbffc17 	ldw	r14,-16(r3)
  103dcc:	6b400404 	addi	r13,r13,16
  103dd0:	5ac00404 	addi	r11,r11,16
  103dd4:	6bbffc15 	stw	r14,-16(r13)
  103dd8:	63800017 	ldw	r14,0(r12)
  103ddc:	4a400404 	addi	r9,r9,16
  103de0:	42000404 	addi	r8,r8,16
  103de4:	5bbffc15 	stw	r14,-16(r11)
  103de8:	53800017 	ldw	r14,0(r10)
  103dec:	63000404 	addi	r12,r12,16
  103df0:	52800404 	addi	r10,r10,16
  103df4:	4bbffc15 	stw	r14,-16(r9)
  103df8:	1bffef1e 	bne	r3,r15,103db8 <_gp+0xffefb5f0>
  103dfc:	81c00044 	addi	r7,r16,1
  103e00:	380e913a 	slli	r7,r7,4
  103e04:	310003cc 	andi	r4,r6,15
  103e08:	02c000c4 	movi	r11,3
  103e0c:	11c7883a 	add	r3,r2,r7
  103e10:	29cb883a 	add	r5,r5,r7
  103e14:	59001f2e 	bgeu	r11,r4,103e94 <memcpy+0x130>
  103e18:	1813883a 	mov	r9,r3
  103e1c:	2811883a 	mov	r8,r5
  103e20:	200f883a 	mov	r7,r4
  103e24:	42800017 	ldw	r10,0(r8)
  103e28:	4a400104 	addi	r9,r9,4
  103e2c:	39ffff04 	addi	r7,r7,-4
  103e30:	4abfff15 	stw	r10,-4(r9)
  103e34:	42000104 	addi	r8,r8,4
  103e38:	59fffa36 	bltu	r11,r7,103e24 <_gp+0xffefb65c>
  103e3c:	213fff04 	addi	r4,r4,-4
  103e40:	2008d0ba 	srli	r4,r4,2
  103e44:	318000cc 	andi	r6,r6,3
  103e48:	21000044 	addi	r4,r4,1
  103e4c:	2109883a 	add	r4,r4,r4
  103e50:	2109883a 	add	r4,r4,r4
  103e54:	1907883a 	add	r3,r3,r4
  103e58:	290b883a 	add	r5,r5,r4
  103e5c:	30000626 	beq	r6,zero,103e78 <memcpy+0x114>
  103e60:	198d883a 	add	r6,r3,r6
  103e64:	29c00003 	ldbu	r7,0(r5)
  103e68:	18c00044 	addi	r3,r3,1
  103e6c:	29400044 	addi	r5,r5,1
  103e70:	19ffffc5 	stb	r7,-1(r3)
  103e74:	19bffb1e 	bne	r3,r6,103e64 <_gp+0xffefb69c>
  103e78:	dc000017 	ldw	r16,0(sp)
  103e7c:	dec00104 	addi	sp,sp,4
  103e80:	f800283a 	ret
  103e84:	2007883a 	mov	r3,r4
  103e88:	003ff406 	br	103e5c <_gp+0xffefb694>
  103e8c:	2007883a 	mov	r3,r4
  103e90:	003ff306 	br	103e60 <_gp+0xffefb698>
  103e94:	200d883a 	mov	r6,r4
  103e98:	003ff006 	br	103e5c <_gp+0xffefb694>

00103e9c <strlen>:
  103e9c:	208000cc 	andi	r2,r4,3
  103ea0:	10002026 	beq	r2,zero,103f24 <strlen+0x88>
  103ea4:	20800007 	ldb	r2,0(r4)
  103ea8:	10002026 	beq	r2,zero,103f2c <strlen+0x90>
  103eac:	2005883a 	mov	r2,r4
  103eb0:	00000206 	br	103ebc <strlen+0x20>
  103eb4:	10c00007 	ldb	r3,0(r2)
  103eb8:	18001826 	beq	r3,zero,103f1c <strlen+0x80>
  103ebc:	10800044 	addi	r2,r2,1
  103ec0:	10c000cc 	andi	r3,r2,3
  103ec4:	183ffb1e 	bne	r3,zero,103eb4 <_gp+0xffefb6ec>
  103ec8:	10c00017 	ldw	r3,0(r2)
  103ecc:	01ffbff4 	movhi	r7,65279
  103ed0:	39ffbfc4 	addi	r7,r7,-257
  103ed4:	00ca303a 	nor	r5,zero,r3
  103ed8:	01a02074 	movhi	r6,32897
  103edc:	19c7883a 	add	r3,r3,r7
  103ee0:	31a02004 	addi	r6,r6,-32640
  103ee4:	1946703a 	and	r3,r3,r5
  103ee8:	1986703a 	and	r3,r3,r6
  103eec:	1800091e 	bne	r3,zero,103f14 <strlen+0x78>
  103ef0:	10800104 	addi	r2,r2,4
  103ef4:	10c00017 	ldw	r3,0(r2)
  103ef8:	19cb883a 	add	r5,r3,r7
  103efc:	00c6303a 	nor	r3,zero,r3
  103f00:	28c6703a 	and	r3,r5,r3
  103f04:	1986703a 	and	r3,r3,r6
  103f08:	183ff926 	beq	r3,zero,103ef0 <_gp+0xffefb728>
  103f0c:	00000106 	br	103f14 <strlen+0x78>
  103f10:	10800044 	addi	r2,r2,1
  103f14:	10c00007 	ldb	r3,0(r2)
  103f18:	183ffd1e 	bne	r3,zero,103f10 <_gp+0xffefb748>
  103f1c:	1105c83a 	sub	r2,r2,r4
  103f20:	f800283a 	ret
  103f24:	2005883a 	mov	r2,r4
  103f28:	003fe706 	br	103ec8 <_gp+0xffefb700>
  103f2c:	0005883a 	mov	r2,zero
  103f30:	f800283a 	ret

00103f34 <__register_exitproc>:
  103f34:	00800834 	movhi	r2,32
  103f38:	defffa04 	addi	sp,sp,-24
  103f3c:	10820104 	addi	r2,r2,2052
  103f40:	dc000315 	stw	r16,12(sp)
  103f44:	14000017 	ldw	r16,0(r2)
  103f48:	dc400415 	stw	r17,16(sp)
  103f4c:	dfc00515 	stw	ra,20(sp)
  103f50:	80805217 	ldw	r2,328(r16)
  103f54:	2023883a 	mov	r17,r4
  103f58:	10003626 	beq	r2,zero,104034 <__register_exitproc+0x100>
  103f5c:	10c00117 	ldw	r3,4(r2)
  103f60:	010007c4 	movi	r4,31
  103f64:	20c00e16 	blt	r4,r3,103fa0 <__register_exitproc+0x6c>
  103f68:	1a400044 	addi	r9,r3,1
  103f6c:	8800211e 	bne	r17,zero,103ff4 <__register_exitproc+0xc0>
  103f70:	18c00084 	addi	r3,r3,2
  103f74:	18c7883a 	add	r3,r3,r3
  103f78:	18c7883a 	add	r3,r3,r3
  103f7c:	12400115 	stw	r9,4(r2)
  103f80:	10c7883a 	add	r3,r2,r3
  103f84:	19400015 	stw	r5,0(r3)
  103f88:	0005883a 	mov	r2,zero
  103f8c:	dfc00517 	ldw	ra,20(sp)
  103f90:	dc400417 	ldw	r17,16(sp)
  103f94:	dc000317 	ldw	r16,12(sp)
  103f98:	dec00604 	addi	sp,sp,24
  103f9c:	f800283a 	ret
  103fa0:	00800034 	movhi	r2,0
  103fa4:	10800004 	addi	r2,r2,0
  103fa8:	10002526 	beq	r2,zero,104040 <__register_exitproc+0x10c>
  103fac:	01006404 	movi	r4,400
  103fb0:	d9400015 	stw	r5,0(sp)
  103fb4:	d9800115 	stw	r6,4(sp)
  103fb8:	d9c00215 	stw	r7,8(sp)
  103fbc:	00000000 	call	0 <__alt_mem_onchip_flash_0_data-0x100000>
  103fc0:	d9400017 	ldw	r5,0(sp)
  103fc4:	d9800117 	ldw	r6,4(sp)
  103fc8:	d9c00217 	ldw	r7,8(sp)
  103fcc:	10001c26 	beq	r2,zero,104040 <__register_exitproc+0x10c>
  103fd0:	80c05217 	ldw	r3,328(r16)
  103fd4:	10000115 	stw	zero,4(r2)
  103fd8:	02400044 	movi	r9,1
  103fdc:	10c00015 	stw	r3,0(r2)
  103fe0:	80805215 	stw	r2,328(r16)
  103fe4:	10006215 	stw	zero,392(r2)
  103fe8:	10006315 	stw	zero,396(r2)
  103fec:	0007883a 	mov	r3,zero
  103ff0:	883fdf26 	beq	r17,zero,103f70 <_gp+0xffefb7a8>
  103ff4:	18d1883a 	add	r8,r3,r3
  103ff8:	4211883a 	add	r8,r8,r8
  103ffc:	1211883a 	add	r8,r2,r8
  104000:	41802215 	stw	r6,136(r8)
  104004:	01000044 	movi	r4,1
  104008:	11806217 	ldw	r6,392(r2)
  10400c:	20c8983a 	sll	r4,r4,r3
  104010:	310cb03a 	or	r6,r6,r4
  104014:	11806215 	stw	r6,392(r2)
  104018:	41c04215 	stw	r7,264(r8)
  10401c:	01800084 	movi	r6,2
  104020:	89bfd31e 	bne	r17,r6,103f70 <_gp+0xffefb7a8>
  104024:	11806317 	ldw	r6,396(r2)
  104028:	3108b03a 	or	r4,r6,r4
  10402c:	11006315 	stw	r4,396(r2)
  104030:	003fcf06 	br	103f70 <_gp+0xffefb7a8>
  104034:	80805304 	addi	r2,r16,332
  104038:	80805215 	stw	r2,328(r16)
  10403c:	003fc706 	br	103f5c <_gp+0xffefb794>
  104040:	00bfffc4 	movi	r2,-1
  104044:	003fd106 	br	103f8c <_gp+0xffefb7c4>

00104048 <__call_exitprocs>:
  104048:	00800834 	movhi	r2,32
  10404c:	10820104 	addi	r2,r2,2052
  104050:	10800017 	ldw	r2,0(r2)
  104054:	defff404 	addi	sp,sp,-48
  104058:	dd800815 	stw	r22,32(sp)
  10405c:	d8800015 	stw	r2,0(sp)
  104060:	10805204 	addi	r2,r2,328
  104064:	dd000615 	stw	r20,24(sp)
  104068:	dc800415 	stw	r18,16(sp)
  10406c:	dfc00b15 	stw	ra,44(sp)
  104070:	df000a15 	stw	fp,40(sp)
  104074:	ddc00915 	stw	r23,36(sp)
  104078:	dd400715 	stw	r21,28(sp)
  10407c:	dcc00515 	stw	r19,20(sp)
  104080:	dc400315 	stw	r17,12(sp)
  104084:	dc000215 	stw	r16,8(sp)
  104088:	2025883a 	mov	r18,r4
  10408c:	2829883a 	mov	r20,r5
  104090:	d8800115 	stw	r2,4(sp)
  104094:	05bfffc4 	movi	r22,-1
  104098:	d8800017 	ldw	r2,0(sp)
  10409c:	14c05217 	ldw	r19,328(r2)
  1040a0:	98001d26 	beq	r19,zero,104118 <__call_exitprocs+0xd0>
  1040a4:	dd400117 	ldw	r21,4(sp)
  1040a8:	98800117 	ldw	r2,4(r19)
  1040ac:	173fffc4 	addi	fp,r2,-1
  1040b0:	e0000d16 	blt	fp,zero,1040e8 <__call_exitprocs+0xa0>
  1040b4:	14000044 	addi	r16,r2,1
  1040b8:	8421883a 	add	r16,r16,r16
  1040bc:	8421883a 	add	r16,r16,r16
  1040c0:	84402004 	addi	r17,r16,128
  1040c4:	9c63883a 	add	r17,r19,r17
  1040c8:	9c21883a 	add	r16,r19,r16
  1040cc:	a0001e26 	beq	r20,zero,104148 <__call_exitprocs+0x100>
  1040d0:	80804017 	ldw	r2,256(r16)
  1040d4:	15001c26 	beq	r2,r20,104148 <__call_exitprocs+0x100>
  1040d8:	e73fffc4 	addi	fp,fp,-1
  1040dc:	843fff04 	addi	r16,r16,-4
  1040e0:	8c7fff04 	addi	r17,r17,-4
  1040e4:	e5bff91e 	bne	fp,r22,1040cc <_gp+0xffefb904>
  1040e8:	00800034 	movhi	r2,0
  1040ec:	10800004 	addi	r2,r2,0
  1040f0:	10000926 	beq	r2,zero,104118 <__call_exitprocs+0xd0>
  1040f4:	98800117 	ldw	r2,4(r19)
  1040f8:	1000311e 	bne	r2,zero,1041c0 <__call_exitprocs+0x178>
  1040fc:	98800017 	ldw	r2,0(r19)
  104100:	10003426 	beq	r2,zero,1041d4 <__call_exitprocs+0x18c>
  104104:	9809883a 	mov	r4,r19
  104108:	a8800015 	stw	r2,0(r21)
  10410c:	00000000 	call	0 <__alt_mem_onchip_flash_0_data-0x100000>
  104110:	acc00017 	ldw	r19,0(r21)
  104114:	983fe41e 	bne	r19,zero,1040a8 <_gp+0xffefb8e0>
  104118:	dfc00b17 	ldw	ra,44(sp)
  10411c:	df000a17 	ldw	fp,40(sp)
  104120:	ddc00917 	ldw	r23,36(sp)
  104124:	dd800817 	ldw	r22,32(sp)
  104128:	dd400717 	ldw	r21,28(sp)
  10412c:	dd000617 	ldw	r20,24(sp)
  104130:	dcc00517 	ldw	r19,20(sp)
  104134:	dc800417 	ldw	r18,16(sp)
  104138:	dc400317 	ldw	r17,12(sp)
  10413c:	dc000217 	ldw	r16,8(sp)
  104140:	dec00c04 	addi	sp,sp,48
  104144:	f800283a 	ret
  104148:	98800117 	ldw	r2,4(r19)
  10414c:	80c00017 	ldw	r3,0(r16)
  104150:	10bfffc4 	addi	r2,r2,-1
  104154:	17001526 	beq	r2,fp,1041ac <__call_exitprocs+0x164>
  104158:	80000015 	stw	zero,0(r16)
  10415c:	183fde26 	beq	r3,zero,1040d8 <_gp+0xffefb910>
  104160:	00800044 	movi	r2,1
  104164:	1708983a 	sll	r4,r2,fp
  104168:	98806217 	ldw	r2,392(r19)
  10416c:	9dc00117 	ldw	r23,4(r19)
  104170:	2084703a 	and	r2,r4,r2
  104174:	1000061e 	bne	r2,zero,104190 <__call_exitprocs+0x148>
  104178:	183ee83a 	callr	r3
  10417c:	98800117 	ldw	r2,4(r19)
  104180:	15ffc51e 	bne	r2,r23,104098 <_gp+0xffefb8d0>
  104184:	a8800017 	ldw	r2,0(r21)
  104188:	14ffd326 	beq	r2,r19,1040d8 <_gp+0xffefb910>
  10418c:	003fc206 	br	104098 <_gp+0xffefb8d0>
  104190:	98806317 	ldw	r2,396(r19)
  104194:	2084703a 	and	r2,r4,r2
  104198:	1000061e 	bne	r2,zero,1041b4 <__call_exitprocs+0x16c>
  10419c:	89400017 	ldw	r5,0(r17)
  1041a0:	9009883a 	mov	r4,r18
  1041a4:	183ee83a 	callr	r3
  1041a8:	003ff406 	br	10417c <_gp+0xffefb9b4>
  1041ac:	9f000115 	stw	fp,4(r19)
  1041b0:	003fea06 	br	10415c <_gp+0xffefb994>
  1041b4:	89000017 	ldw	r4,0(r17)
  1041b8:	183ee83a 	callr	r3
  1041bc:	003fef06 	br	10417c <_gp+0xffefb9b4>
  1041c0:	98800017 	ldw	r2,0(r19)
  1041c4:	982b883a 	mov	r21,r19
  1041c8:	1027883a 	mov	r19,r2
  1041cc:	983fb61e 	bne	r19,zero,1040a8 <_gp+0xffefb8e0>
  1041d0:	003fd106 	br	104118 <_gp+0xffefb950>
  1041d4:	0005883a 	mov	r2,zero
  1041d8:	003ffa06 	br	1041c4 <_gp+0xffefb9fc>

001041dc <_exit>:
  1041dc:	defffd04 	addi	sp,sp,-12
  1041e0:	df000215 	stw	fp,8(sp)
  1041e4:	df000204 	addi	fp,sp,8
  1041e8:	e13fff15 	stw	r4,-4(fp)
  1041ec:	0001883a 	nop
  1041f0:	e0bfff17 	ldw	r2,-4(fp)
  1041f4:	e0bffe15 	stw	r2,-8(fp)
  1041f8:	e0bffe17 	ldw	r2,-8(fp)
  1041fc:	10000226 	beq	r2,zero,104208 <_exit+0x2c>
  104200:	002af070 	cmpltui	zero,zero,43969
  104204:	00000106 	br	10420c <_exit+0x30>
  104208:	002af0b0 	cmpltui	zero,zero,43970
  10420c:	003fff06 	br	10420c <_gp+0xffefba44>
