
main.elf:     file format elf32-msp430


Disassembly of section .text:

00000000 <__crt0_begin>:
   0:	18 42 e8 ff 	mov	&0xffe8,r8	;0xffe8
   4:	11 42 ea ff 	mov	&0xffea,r1	;0xffea
   8:	02 43       	clr	r2		;
   a:	01 58       	add	r8,	r1	;
   c:	b2 40 00 47 	mov	#18176,	&0xffb8	;#0x4700
  10:	b8 ff 
  12:	39 40 80 ff 	mov	#65408,	r9	;#0xff80

00000016 <__crt0_clr_io>:
  16:	09 93       	cmp	#0,	r9	;r3 As==00
  18:	04 24       	jz	$+10     	;abs 0x22
  1a:	89 43 00 00 	mov	#0,	0(r9)	;r3 As==00
  1e:	29 53       	incd	r9		;
  20:	fa 3f       	jmp	$-10     	;abs 0x16

00000022 <__crt0_clr_dmem>:
  22:	01 98       	cmp	r8,	r1	;
  24:	04 24       	jz	$+10     	;abs 0x2e
  26:	88 43 00 00 	mov	#0,	0(r8)	;r3 As==00
  2a:	28 53       	incd	r8		;
  2c:	fa 3f       	jmp	$-10     	;abs 0x22

0000002e <__crt0_clr_dmem_end>:
  2e:	35 40 d8 09 	mov	#2520,	r5	;#0x09d8
  32:	36 40 d8 09 	mov	#2520,	r6	;#0x09d8
  36:	37 40 00 80 	mov	#32768,	r7	;#0x8000

0000003a <__crt0_cpy_data>:
  3a:	06 95       	cmp	r5,	r6	;
  3c:	04 24       	jz	$+10     	;abs 0x46
  3e:	b7 45 00 00 	mov	@r5+,	0(r7)	;
  42:	27 53       	incd	r7		;
  44:	fa 3f       	jmp	$-10     	;abs 0x3a

00000046 <__crt0_cpy_data_end>:
  46:	32 40 00 40 	mov	#16384,	r2	;#0x4000
  4a:	04 43       	clr	r4		;
  4c:	0a 43       	clr	r10		;
  4e:	0b 43       	clr	r11		;
  50:	0c 43       	clr	r12		;
  52:	0d 43       	clr	r13		;
  54:	0e 43       	clr	r14		;
  56:	0f 43       	clr	r15		;

00000058 <__crt0_start_main>:
  58:	b0 12 98 01 	call	#408		;#0x0198

0000005c <__crt0_this_is_the_end>:
  5c:	02 43       	clr	r2		;
  5e:	b2 40 00 47 	mov	#18176,	&0xffb8	;#0x4700
  62:	b8 ff 
  64:	32 40 10 00 	mov	#16,	r2	;#0x0010
  68:	03 43       	nop			

0000006a <wishbone_read32>:
  6a:	b2 40 0f 00 	mov	#15,	&0xff90	;#0x000f
  6e:	90 ff 
  70:	0e 4c       	mov	r12,	r14	;
  72:	3e f0 fc ff 	and	#65532,	r14	;#0xfffc
  76:	82 4e 92 ff 	mov	r14,	&0xff92	;
  7a:	82 4d 94 ff 	mov	r13,	&0xff94	;
  7e:	3d 40 90 ff 	mov	#65424,	r13	;#0xff90

00000082 <.L2>:
  82:	2c 4d       	mov	@r13,	r12	;
  84:	0c 93       	cmp	#0,	r12	;r3 As==00
  86:	fd 3b       	jl	$-4      	;abs 0x82
  88:	1c 42 9a ff 	mov	&0xff9a,r12	;0xff9a
  8c:	1d 42 9c ff 	mov	&0xff9c,r13	;0xff9c
  90:	30 41       	ret			

00000092 <wishbone_write32>:
  92:	b2 40 0f 00 	mov	#15,	&0xff90	;#0x000f
  96:	90 ff 
  98:	82 4e 9a ff 	mov	r14,	&0xff9a	;
  9c:	82 4f 9c ff 	mov	r15,	&0xff9c	;
  a0:	0e 4c       	mov	r12,	r14	;
  a2:	3e f0 fc ff 	and	#65532,	r14	;#0xfffc
  a6:	82 4e 96 ff 	mov	r14,	&0xff96	;
  aa:	82 4d 98 ff 	mov	r13,	&0xff98	;
  ae:	3d 40 90 ff 	mov	#65424,	r13	;#0xff90

000000b2 <.L5>:
  b2:	2c 4d       	mov	@r13,	r12	;
  b4:	0c 93       	cmp	#0,	r12	;r3 As==00
  b6:	fd 3b       	jl	$-4      	;abs 0xb2
  b8:	30 41       	ret			

000000ba <reverse>:
  ba:	0a 12       	push	r10		;
  bc:	4a 4c       	mov.b	r12,	r10	;
  be:	0c 4a       	mov	r10,	r12	;
  c0:	b0 12 12 08 	call	#2066		;#0x0812
  c4:	0a 5a       	rla	r10		;
  c6:	0a 5a       	rla	r10		;
  c8:	0a 5a       	rla	r10		;
  ca:	0a 5a       	rla	r10		;
  cc:	4a dc       	bis.b	r12,	r10	;
  ce:	3a f0 ff 00 	and	#255,	r10	;#0x00ff
  d2:	0c 4a       	mov	r10,	r12	;
  d4:	b0 12 8c 07 	call	#1932		;#0x078c
  d8:	7c f0 33 00 	and.b	#51,	r12	;#0x0033
  dc:	0a 5a       	rla	r10		;
  de:	0a 5a       	rla	r10		;
  e0:	7a f0 cc ff 	and.b	#65484,	r10	;#0xffcc
  e4:	4a dc       	bis.b	r12,	r10	;
  e6:	3a f0 ff 00 	and	#255,	r10	;#0x00ff
  ea:	0c 4a       	mov	r10,	r12	;
  ec:	0c 11       	rra	r12		;
  ee:	7c f0 55 00 	and.b	#85,	r12	;#0x0055
  f2:	0a 5a       	rla	r10		;
  f4:	7a f0 aa ff 	and.b	#65450,	r10	;#0xffaa
  f8:	4c da       	bis.b	r10,	r12	;
  fa:	3a 41       	pop	r10		;
  fc:	30 41       	ret			

000000fe <uart_set_baud.constprop.2>:
  fe:	0a 12       	push	r10		;
 100:	1e 42 ec ff 	mov	&0xffec,r14	;0xffec
 104:	1f 42 ee ff 	mov	&0xffee,r15	;0xffee
 108:	4c 43       	clr.b	r12		;

0000010a <.L9>:
 10a:	0a 4f       	mov	r15,	r10	;
 10c:	0f 93       	cmp	#0,	r15	;r3 As==00
 10e:	16 20       	jnz	$+46     	;abs 0x13c
 110:	3d 40 ff 95 	mov	#38399,	r13	;#0x95ff
 114:	0d 9e       	cmp	r14,	r13	;
 116:	12 28       	jnc	$+38     	;abs 0x13c

00000118 <.L12>:
 118:	7d 40 ff 00 	mov.b	#255,	r13	;#0x00ff
 11c:	0d 9c       	cmp	r12,	r13	;
 11e:	14 28       	jnc	$+42     	;abs 0x148
 120:	0d 4a       	mov	r10,	r13	;
 122:	0d 5a       	add	r10,	r13	;
 124:	0d 5d       	rla	r13		;
 126:	0d 5d       	rla	r13		;
 128:	0d 5d       	rla	r13		;
 12a:	0d 5d       	rla	r13		;
 12c:	0d 5d       	rla	r13		;
 12e:	0d 5d       	rla	r13		;
 130:	0d 5d       	rla	r13		;
 132:	0d dc       	bis	r12,	r13	;
 134:	82 4d a6 ff 	mov	r13,	&0xffa6	;
 138:	3a 41       	pop	r10		;
 13a:	30 41       	ret			

0000013c <.L10>:
 13c:	3e 50 00 6a 	add	#27136,	r14	;#0x6a00
 140:	3f 63       	addc	#-1,	r15	;r3 As==11
 142:	1c 53       	inc	r12		;
 144:	30 40 0a 01 	br	#0x010a		;

00000148 <.L16>:
 148:	6a 93       	cmp.b	#2,	r10	;r3 As==10
 14a:	02 24       	jz	$+6      	;abs 0x150
 14c:	6a 92       	cmp.b	#4,	r10	;r2 As==10
 14e:	07 20       	jnz	$+16     	;abs 0x15e

00000150 <.L13>:
 150:	b0 12 16 08 	call	#2070		;#0x0816

00000154 <.L15>:
 154:	5a 53       	inc.b	r10		;
 156:	3a f0 ff 00 	and	#255,	r10	;#0x00ff
 15a:	30 40 18 01 	br	#0x0118		;

0000015e <.L14>:
 15e:	b0 12 1e 08 	call	#2078		;#0x081e
 162:	30 40 54 01 	br	#0x0154		;

00000166 <uart_br_print>:
 166:	3e 40 a0 ff 	mov	#65440,	r14	;#0xffa0
 16a:	3f 40 a4 ff 	mov	#65444,	r15	;#0xffa4

0000016e <.L22>:
 16e:	6d 4c       	mov.b	@r12,	r13	;
 170:	0d 93       	cmp	#0,	r13	;r3 As==00
 172:	01 20       	jnz	$+4      	;abs 0x176
 174:	30 41       	ret			

00000176 <.L26>:
 176:	3d 90 0a 00 	cmp	#10,	r13	;#0x000a
 17a:	06 20       	jnz	$+14     	;abs 0x188

0000017c <.L24>:
 17c:	be b2 00 00 	bit	#8,	0(r14)	;r2 As==11
 180:	fd 23       	jnz	$-4      	;abs 0x17c
 182:	b2 40 0d 00 	mov	#13,	&0xffa4	;#0x000d
 186:	a4 ff 

00000188 <.L25>:
 188:	be b2 00 00 	bit	#8,	0(r14)	;r2 As==11
 18c:	fd 23       	jnz	$-4      	;abs 0x188
 18e:	8f 4d 00 00 	mov	r13,	0(r15)	;
 192:	1c 53       	inc	r12		;
 194:	30 40 6e 01 	br	#0x016e		;

00000198 <main>:
 198:	0a 12       	push	r10		;
 19a:	09 12       	push	r9		;
 19c:	08 12       	push	r8		;
 19e:	07 12       	push	r7		;
 1a0:	06 12       	push	r6		;
 1a2:	05 12       	push	r5		;
 1a4:	04 12       	push	r4		;
 1a6:	31 82       	sub	#8,	r1	;r2 As==11
 1a8:	39 40 fe 00 	mov	#254,	r9	;#0x00fe
 1ac:	89 12       	call	r9		;
 1ae:	92 43 a0 ff 	mov	#1,	&0xffa0	;r3 As==01
 1b2:	3a 40 92 00 	mov	#146,	r10	;#0x0092
 1b6:	5e 43       	mov.b	#1,	r14	;r3 As==01
 1b8:	4f 43       	clr.b	r15		;
 1ba:	3c 40 0c 04 	mov	#1036,	r12	;#0x040c
 1be:	4d 43       	clr.b	r13		;
 1c0:	8a 12       	call	r10		;
 1c2:	4e 43       	clr.b	r14		;
 1c4:	4f 43       	clr.b	r15		;
 1c6:	3c 40 0c 04 	mov	#1036,	r12	;#0x040c
 1ca:	4d 43       	clr.b	r13		;
 1cc:	8a 12       	call	r10		;
 1ce:	89 12       	call	r9		;
 1d0:	92 43 a0 ff 	mov	#1,	&0xffa0	;r3 As==01
 1d4:	39 40 66 01 	mov	#358,	r9	;#0x0166
 1d8:	3c 40 ae 08 	mov	#2222,	r12	;#0x08ae
 1dc:	89 12       	call	r9		;
 1de:	4e 43       	clr.b	r14		;
 1e0:	4f 43       	clr.b	r15		;
 1e2:	7c 40 68 00 	mov.b	#104,	r12	;#0x0068
 1e6:	4d 43       	clr.b	r13		;
 1e8:	8a 12       	call	r10		;
 1ea:	5e 43       	mov.b	#1,	r14	;r3 As==01
 1ec:	4f 43       	clr.b	r15		;
 1ee:	7c 40 70 00 	mov.b	#112,	r12	;#0x0070
 1f2:	4d 43       	clr.b	r13		;
 1f4:	8a 12       	call	r10		;
 1f6:	7e 40 4f 00 	mov.b	#79,	r14	;#0x004f
 1fa:	4f 43       	clr.b	r15		;
 1fc:	7c 40 60 00 	mov.b	#96,	r12	;#0x0060
 200:	4d 43       	clr.b	r13		;
 202:	8a 12       	call	r10		;
 204:	4e 43       	clr.b	r14		;
 206:	4f 43       	clr.b	r15		;
 208:	7c 40 64 00 	mov.b	#100,	r12	;#0x0064
 20c:	4d 43       	clr.b	r13		;
 20e:	8a 12       	call	r10		;
 210:	7e 40 80 00 	mov.b	#128,	r14	;#0x0080
 214:	4f 43       	clr.b	r15		;
 216:	7c 40 68 00 	mov.b	#104,	r12	;#0x0068
 21a:	4d 43       	clr.b	r13		;
 21c:	8a 12       	call	r10		;
 21e:	b2 b2 e2 ff 	bit	#8,	&0xffe2	;r2 As==11
 222:	02 20       	jnz	$+6      	;abs 0x228
 224:	30 40 e0 06 	br	#0x06e0		;
 228:	81 43 00 00 	mov	#0,	0(r1)	;r3 As==00
 22c:	81 43 02 00 	mov	#0,	2(r1)	;r3 As==00
 230:	48 43       	clr.b	r8		;
 232:	81 48 04 00 	mov	r8,	4(r1)	;
 236:	39 40 6a 00 	mov	#106,	r9	;#0x006a

0000023a <.L32>:
 23a:	3c 40 08 04 	mov	#1032,	r12	;#0x0408
 23e:	4d 43       	clr.b	r13		;
 240:	89 12       	call	r9		;
 242:	5c f3       	and.b	#1,	r12	;r3 As==01
 244:	0c 93       	cmp	#0,	r12	;r3 As==00
 246:	f9 23       	jnz	$-12     	;abs 0x23a
 248:	05 4c       	mov	r12,	r5	;
 24a:	36 40 04 04 	mov	#1028,	r6	;#0x0404
 24e:	47 43       	clr.b	r7		;

00000250 <.L33>:
 250:	3c 40 08 04 	mov	#1032,	r12	;#0x0408
 254:	4d 43       	clr.b	r13		;
 256:	89 12       	call	r9		;
 258:	0a 4c       	mov	r12,	r10	;
 25a:	5a f3       	and.b	#1,	r10	;r3 As==01
 25c:	0a 93       	cmp	#0,	r10	;r3 As==00
 25e:	f8 23       	jnz	$-14     	;abs 0x250
 260:	0c 46       	mov	r6,	r12	;
 262:	0d 47       	mov	r7,	r13	;
 264:	89 12       	call	r9		;
 266:	85 4c 40 80 	mov	r12,	-32704(r5); 0x8040
 26a:	85 4d 42 80 	mov	r13,	-32702(r5); 0x8042
 26e:	25 52       	add	#4,	r5	;r2 As==10
 270:	35 90 40 00 	cmp	#64,	r5	;#0x0040
 274:	ed 23       	jnz	$-36     	;abs 0x250
 276:	37 40 00 80 	mov	#32768,	r7	;#0x8000
 27a:	0e 45       	mov	r5,	r14	;
 27c:	0d 4a       	mov	r10,	r13	;
 27e:	0c 47       	mov	r7,	r12	;
 280:	b0 12 9a 08 	call	#2202		;#0x089a
 284:	35 40 40 80 	mov	#32832,	r5	;#0x8040
 288:	6c 45       	mov.b	@r5,	r12	;
 28a:	c7 4c 00 00 	mov.b	r12,	0(r7)	;
 28e:	d7 45 02 00 	mov.b	2(r5),	2(r7)	;
 292:	02 00 
 294:	d7 45 03 00 	mov.b	3(r5),	3(r7)	;
 298:	03 00 
 29a:	f2 40 03 00 	mov.b	#3,	&0x8001	;
 29e:	01 80 
 2a0:	4c 93       	cmp.b	#0,	r12	;r3 As==00
 2a2:	0b 24       	jz	$+24     	;abs 0x2ba
 2a4:	7c 90 53 00 	cmp.b	#83,	r12	;#0x0053
 2a8:	15 24       	jz	$+44     	;abs 0x2d4
 2aa:	3c 40 c6 09 	mov	#2502,	r12	;#0x09c6
 2ae:	b0 12 66 01 	call	#358		;#0x0166
 2b2:	e2 43 01 80 	mov.b	#2,	&0x8001	;r3 As==10
 2b6:	30 40 f6 02 	br	#0x02f6		;

000002ba <.L36>:
 2ba:	e2 43 08 80 	mov.b	#2,	&0x8008	;r3 As==10
 2be:	f2 40 11 00 	mov.b	#17,	&0x8009	;#0x0011
 2c2:	09 80 
 2c4:	d2 43 0a 80 	mov.b	#1,	&0x800a	;r3 As==01
 2c8:	d2 43 0c 80 	mov.b	#1,	&0x800c	;r3 As==01

000002cc <.L94>:
 2cc:	d2 43 01 80 	mov.b	#1,	&0x8001	;r3 As==01
 2d0:	30 40 f6 02 	br	#0x02f6		;

000002d4 <.L37>:
 2d4:	5c 45 08 00 	mov.b	8(r5),	r12	;
 2d8:	5c 93       	cmp.b	#1,	r12	;r3 As==01
 2da:	38 24       	jz	$+114    	;abs 0x34c
 2dc:	4c 93       	cmp.b	#0,	r12	;r3 As==00
 2de:	08 24       	jz	$+18     	;abs 0x2f0
 2e0:	6c 93       	cmp.b	#2,	r12	;r3 As==10
 2e2:	f4 23       	jnz	$-22     	;abs 0x2cc
 2e4:	d2 43 01 80 	mov.b	#1,	&0x8001	;r3 As==01
 2e8:	91 43 04 00 	mov	#1,	4(r1)	;r3 As==01
 2ec:	30 40 f6 02 	br	#0x02f6		;

000002f0 <.L41>:
 2f0:	f2 40 05 00 	mov.b	#5,	&0x8001	;
 2f4:	01 80 

000002f6 <.L38>:
 2f6:	4a 43       	clr.b	r10		;
 2f8:	35 40 92 00 	mov	#146,	r5	;#0x0092
 2fc:	36 40 00 04 	mov	#1024,	r6	;#0x0400
 300:	47 43       	clr.b	r7		;
 302:	04 45       	mov	r5,	r4	;

00000304 <.L71>:
 304:	1e 4a 00 80 	mov	-32768(r10),r14	;0xffff8000
 308:	1f 4a 02 80 	mov	-32766(r10),r15	;0xffff8002
 30c:	0c 46       	mov	r6,	r12	;
 30e:	0d 47       	mov	r7,	r13	;
 310:	85 12       	call	r5		;
 312:	2a 52       	add	#4,	r10	;r2 As==10
 314:	3a 90 40 00 	cmp	#64,	r10	;#0x0040
 318:	f5 23       	jnz	$-20     	;abs 0x304
 31a:	81 93 04 00 	cmp	#0,	4(r1)	;r3 As==00
 31e:	8d 27       	jz	$-228    	;abs 0x23a
 320:	5e 43       	mov.b	#1,	r14	;r3 As==01
 322:	4f 43       	clr.b	r15		;
 324:	6c 42       	mov.b	#4,	r12	;r2 As==10
 326:	4d 43       	clr.b	r13		;
 328:	85 12       	call	r5		;
 32a:	76 40 0c 00 	mov.b	#12,	r6	;#0x000c
 32e:	47 43       	clr.b	r7		;

00000330 <.L73>:
 330:	0c 46       	mov	r6,	r12	;
 332:	0d 47       	mov	r7,	r13	;
 334:	89 12       	call	r9		;
 336:	1c 93       	cmp	#1,	r12	;r3 As==01
 338:	02 20       	jnz	$+6      	;abs 0x33e
 33a:	0d 93       	cmp	#0,	r13	;r3 As==00
 33c:	f9 27       	jz	$-12     	;abs 0x330

0000033e <.L83>:
 33e:	5e 43       	mov.b	#1,	r14	;r3 As==01
 340:	4f 43       	clr.b	r15		;
 342:	4c 43       	clr.b	r12		;
 344:	4d 43       	clr.b	r13		;
 346:	84 12       	call	r4		;
 348:	30 40 3a 02 	br	#0x023a		;

0000034c <.L40>:
 34c:	5c 45 09 00 	mov.b	9(r5),	r12	;
 350:	0d 4a       	mov	r10,	r13	;
 352:	7e 40 18 00 	mov.b	#24,	r14	;#0x0018
 356:	b0 12 6c 07 	call	#1900		;#0x076c
 35a:	07 4c       	mov	r12,	r7	;
 35c:	06 4d       	mov	r13,	r6	;
 35e:	5c 45 0a 00 	mov.b	10(r5),	r12	;0x0000a
 362:	0d 4a       	mov	r10,	r13	;
 364:	7e 40 10 00 	mov.b	#16,	r14	;#0x0010
 368:	b0 12 6c 07 	call	#1900		;#0x076c
 36c:	0c d7       	bis	r7,	r12	;
 36e:	0d d6       	bis	r6,	r13	;
 370:	5e 45 0c 00 	mov.b	12(r5),	r14	;0x0000c
 374:	0c de       	bis	r14,	r12	;
 376:	5e 45 0b 00 	mov.b	11(r5),	r14	;0x0000b
 37a:	06 4a       	mov	r10,	r6	;
 37c:	0e 5e       	rla	r14		;
 37e:	06 6a       	addc	r10,	r6	;
 380:	0e 5e       	rla	r14		;
 382:	06 66       	rlc	r6		;
 384:	0e 5e       	rla	r14		;
 386:	06 66       	rlc	r6		;
 388:	0e 5e       	rla	r14		;
 38a:	06 66       	rlc	r6		;
 38c:	0e 5e       	rla	r14		;
 38e:	06 66       	rlc	r6		;
 390:	0e 5e       	rla	r14		;
 392:	06 66       	rlc	r6		;
 394:	0e 5e       	rla	r14		;
 396:	06 66       	rlc	r6		;
 398:	0e 5e       	rla	r14		;
 39a:	06 66       	rlc	r6		;
 39c:	0e dc       	bis	r12,	r14	;
 39e:	06 dd       	bis	r13,	r6	;
 3a0:	06 de       	bis	r14,	r6	;
 3a2:	06 93       	cmp	#0,	r6	;r3 As==00
 3a4:	02 20       	jnz	$+6      	;abs 0x3aa
 3a6:	78 40 0a 00 	mov.b	#10,	r8	;#0x000a

000003aa <.L43>:
 3aa:	c2 93 4d 80 	cmp.b	#0,	&0x804d	;r3 As==00
 3ae:	44 24       	jz	$+138    	;abs 0x438
 3b0:	76 40 40 00 	mov.b	#64,	r6	;#0x0040
 3b4:	47 43       	clr.b	r7		;
 3b6:	3a 40 66 01 	mov	#358,	r10	;#0x0166

000003ba <.L75>:
 3ba:	4c 48       	mov.b	r8,	r12	;
 3bc:	78 90 0e 00 	cmp.b	#14,	r8	;#0x000e
 3c0:	8e 24       	jz	$+286    	;abs 0x4de
 3c2:	7d 40 0e 00 	mov.b	#14,	r13	;#0x000e
 3c6:	4d 98       	cmp.b	r8,	r13	;
 3c8:	22 28       	jnc	$+70     	;abs 0x40e
 3ca:	78 90 0b 00 	cmp.b	#11,	r8	;#0x000b
 3ce:	44 24       	jz	$+138    	;abs 0x458
 3d0:	38 40 92 00 	mov	#146,	r8	;#0x0092
 3d4:	7c 90 0d 00 	cmp.b	#13,	r12	;#0x000d
 3d8:	70 24       	jz	$+226    	;abs 0x4ba
 3da:	7c 90 0a 00 	cmp.b	#10,	r12	;#0x000a
 3de:	21 20       	jnz	$+68     	;abs 0x422
 3e0:	3e 43       	mov	#-1,	r14	;r3 As==11
 3e2:	3f 40 7f f6 	mov	#63103,	r15	;#0xf67f
 3e6:	7c 40 44 00 	mov.b	#68,	r12	;#0x0044
 3ea:	4d 43       	clr.b	r13		;
 3ec:	88 12       	call	r8		;
 3ee:	3e 43       	mov	#-1,	r14	;r3 As==11
 3f0:	3f 40 5f f6 	mov	#63071,	r15	;#0xf65f
 3f4:	7c 40 44 00 	mov.b	#68,	r12	;#0x0044
 3f8:	4d 43       	clr.b	r13		;
 3fa:	88 12       	call	r8		;
 3fc:	81 43 00 00 	mov	#0,	0(r1)	;r3 As==00
 400:	81 43 02 00 	mov	#0,	2(r1)	;r3 As==00
 404:	75 40 0b 00 	mov.b	#11,	r5	;#0x000b

00000408 <.L55>:
 408:	08 45       	mov	r5,	r8	;
 40a:	30 40 ba 03 	br	#0x03ba		;

0000040e <.L47>:
 40e:	78 90 11 00 	cmp.b	#17,	r8	;#0x0011
 412:	a7 24       	jz	$+336    	;abs 0x562
 414:	7e 40 11 00 	mov.b	#17,	r14	;#0x0011
 418:	4e 98       	cmp.b	r8,	r14	;
 41a:	08 28       	jnc	$+18     	;abs 0x42c
 41c:	78 90 10 00 	cmp.b	#16,	r8	;#0x0010
 420:	8c 24       	jz	$+282    	;abs 0x53a

00000422 <.L45>:
 422:	f2 40 05 00 	mov.b	#5,	&0x8001	;
 426:	01 80 
 428:	30 40 52 04 	br	#0x0452		;

0000042c <.L52>:
 42c:	78 90 14 00 	cmp.b	#20,	r8	;#0x0014
 430:	c7 24       	jz	$+400    	;abs 0x5c0
 432:	78 90 1e 00 	cmp.b	#30,	r8	;#0x001e
 436:	f5 23       	jnz	$-20     	;abs 0x422

00000438 <.L44>:
 438:	3e 43       	mov	#-1,	r14	;r3 As==11
 43a:	3f 43       	mov	#-1,	r15	;r3 As==11
 43c:	7c 40 44 00 	mov.b	#68,	r12	;#0x0044
 440:	4d 43       	clr.b	r13		;
 442:	b0 12 92 00 	call	#146		;#0x0092
 446:	d2 43 01 80 	mov.b	#1,	&0x8001	;r3 As==01
 44a:	3c 40 ac 09 	mov	#2476,	r12	;#0x09ac
 44e:	b0 12 66 01 	call	#358		;#0x0166

00000452 <.L96>:
 452:	48 43       	clr.b	r8		;
 454:	30 40 f6 02 	br	#0x02f6		;

00000458 <.L48>:
 458:	0c 46       	mov	r6,	r12	;
 45a:	0d 47       	mov	r7,	r13	;
 45c:	89 12       	call	r9		;
 45e:	7c f0 13 00 	and.b	#19,	r12	;#0x0013
 462:	3c 90 10 00 	cmp	#16,	r12	;#0x0010
 466:	26 20       	jnz	$+78     	;abs 0x4b4
 468:	3e 43       	mov	#-1,	r14	;r3 As==11
 46a:	3f 40 7f f6 	mov	#63103,	r15	;#0xf67f
 46e:	7c 40 44 00 	mov.b	#68,	r12	;#0x0044
 472:	4d 43       	clr.b	r13		;
 474:	b0 12 92 00 	call	#146		;#0x0092
 478:	3c 40 fa 08 	mov	#2298,	r12	;#0x08fa
 47c:	8a 12       	call	r10		;
 47e:	75 40 0d 00 	mov.b	#13,	r5	;#0x000d

00000482 <.L56>:
 482:	0c 46       	mov	r6,	r12	;
 484:	0d 47       	mov	r7,	r13	;
 486:	89 12       	call	r9		;
 488:	7c f0 13 00 	and.b	#19,	r12	;#0x0013
 48c:	1c 93       	cmp	#1,	r12	;r3 As==01
 48e:	04 20       	jnz	$+10     	;abs 0x498
 490:	3c 40 07 09 	mov	#2311,	r12	;#0x0907
 494:	8a 12       	call	r10		;
 496:	05 48       	mov	r8,	r5	;

00000498 <.L57>:
 498:	0c 46       	mov	r6,	r12	;
 49a:	0d 47       	mov	r7,	r13	;
 49c:	89 12       	call	r9		;
 49e:	08 4c       	mov	r12,	r8	;
 4a0:	78 f0 13 00 	and.b	#19,	r8	;#0x0013
 4a4:	08 93       	cmp	#0,	r8	;r3 As==00
 4a6:	b0 23       	jnz	$-158    	;abs 0x408
 4a8:	3c 40 15 09 	mov	#2325,	r12	;#0x0915

000004ac <.L97>:
 4ac:	8a 12       	call	r10		;
 4ae:	05 48       	mov	r8,	r5	;
 4b0:	30 40 08 04 	br	#0x0408		;

000004b4 <.L76>:
 4b4:	05 48       	mov	r8,	r5	;
 4b6:	30 40 82 04 	br	#0x0482		;

000004ba <.L49>:
 4ba:	3e 43       	mov	#-1,	r14	;r3 As==11
 4bc:	3f 40 7f f6 	mov	#63103,	r15	;#0xf67f
 4c0:	7c 40 44 00 	mov.b	#68,	r12	;#0x0044
 4c4:	4d 43       	clr.b	r13		;
 4c6:	88 12       	call	r8		;
 4c8:	3e 43       	mov	#-1,	r14	;r3 As==11
 4ca:	3f 40 1f f6 	mov	#63007,	r15	;#0xf61f
 4ce:	7c 40 44 00 	mov.b	#68,	r12	;#0x0044
 4d2:	4d 43       	clr.b	r13		;
 4d4:	88 12       	call	r8		;
 4d6:	75 40 0e 00 	mov.b	#14,	r5	;#0x000e
 4da:	30 40 08 04 	br	#0x0408		;

000004de <.L46>:
 4de:	0c 46       	mov	r6,	r12	;
 4e0:	0d 47       	mov	r7,	r13	;
 4e2:	89 12       	call	r9		;
 4e4:	05 4c       	mov	r12,	r5	;
 4e6:	75 f0 13 00 	and.b	#19,	r5	;#0x0013
 4ea:	35 90 10 00 	cmp	#16,	r5	;#0x0010
 4ee:	22 20       	jnz	$+70     	;abs 0x534
 4f0:	3e 43       	mov	#-1,	r14	;r3 As==11
 4f2:	3f 40 7f f6 	mov	#63103,	r15	;#0xf67f
 4f6:	7c 40 44 00 	mov.b	#68,	r12	;#0x0044
 4fa:	4d 43       	clr.b	r13		;
 4fc:	b0 12 92 00 	call	#146		;#0x0092
 500:	3c 40 28 09 	mov	#2344,	r12	;#0x0928
 504:	8a 12       	call	r10		;

00000506 <.L58>:
 506:	0c 46       	mov	r6,	r12	;
 508:	0d 47       	mov	r7,	r13	;
 50a:	89 12       	call	r9		;
 50c:	7c f0 13 00 	and.b	#19,	r12	;#0x0013
 510:	1c 93       	cmp	#1,	r12	;r3 As==01
 512:	04 20       	jnz	$+10     	;abs 0x51c
 514:	3c 40 38 09 	mov	#2360,	r12	;#0x0938
 518:	8a 12       	call	r10		;
 51a:	05 48       	mov	r8,	r5	;

0000051c <.L59>:
 51c:	0c 46       	mov	r6,	r12	;
 51e:	0d 47       	mov	r7,	r13	;
 520:	89 12       	call	r9		;
 522:	08 4c       	mov	r12,	r8	;
 524:	78 f0 13 00 	and.b	#19,	r8	;#0x0013
 528:	08 93       	cmp	#0,	r8	;r3 As==00
 52a:	6e 23       	jnz	$-290    	;abs 0x408
 52c:	3c 40 49 09 	mov	#2377,	r12	;#0x0949
 530:	30 40 ac 04 	br	#0x04ac		;

00000534 <.L77>:
 534:	05 48       	mov	r8,	r5	;
 536:	30 40 06 05 	br	#0x0506		;

0000053a <.L53>:
 53a:	38 40 92 00 	mov	#146,	r8	;#0x0092
 53e:	3e 43       	mov	#-1,	r14	;r3 As==11
 540:	3f 40 7f f6 	mov	#63103,	r15	;#0xf67f
 544:	7c 40 44 00 	mov.b	#68,	r12	;#0x0044
 548:	4d 43       	clr.b	r13		;
 54a:	88 12       	call	r8		;
 54c:	3e 43       	mov	#-1,	r14	;r3 As==11
 54e:	3f 40 2f f6 	mov	#63023,	r15	;#0xf62f
 552:	7c 40 44 00 	mov.b	#68,	r12	;#0x0044
 556:	4d 43       	clr.b	r13		;
 558:	88 12       	call	r8		;
 55a:	75 40 11 00 	mov.b	#17,	r5	;#0x0011
 55e:	30 40 08 04 	br	#0x0408		;

00000562 <.L51>:
 562:	0c 46       	mov	r6,	r12	;
 564:	0d 47       	mov	r7,	r13	;
 566:	89 12       	call	r9		;
 568:	7c f0 13 00 	and.b	#19,	r12	;#0x0013
 56c:	3c 90 10 00 	cmp	#16,	r12	;#0x0010
 570:	24 20       	jnz	$+74     	;abs 0x5ba
 572:	3e 43       	mov	#-1,	r14	;r3 As==11
 574:	3f 40 7f f6 	mov	#63103,	r15	;#0xf67f
 578:	7c 40 44 00 	mov.b	#68,	r12	;#0x0044
 57c:	4d 43       	clr.b	r13		;
 57e:	b0 12 92 00 	call	#146		;#0x0092
 582:	3c 40 5f 09 	mov	#2399,	r12	;#0x095f
 586:	8a 12       	call	r10		;
 588:	75 40 14 00 	mov.b	#20,	r5	;#0x0014

0000058c <.L60>:
 58c:	0c 46       	mov	r6,	r12	;
 58e:	0d 47       	mov	r7,	r13	;
 590:	89 12       	call	r9		;
 592:	7c f0 13 00 	and.b	#19,	r12	;#0x0013
 596:	1c 93       	cmp	#1,	r12	;r3 As==01
 598:	04 20       	jnz	$+10     	;abs 0x5a2
 59a:	3c 40 6f 09 	mov	#2415,	r12	;#0x096f
 59e:	8a 12       	call	r10		;
 5a0:	05 48       	mov	r8,	r5	;

000005a2 <.L61>:
 5a2:	0c 46       	mov	r6,	r12	;
 5a4:	0d 47       	mov	r7,	r13	;
 5a6:	89 12       	call	r9		;
 5a8:	08 4c       	mov	r12,	r8	;
 5aa:	78 f0 13 00 	and.b	#19,	r8	;#0x0013
 5ae:	08 93       	cmp	#0,	r8	;r3 As==00
 5b0:	2b 23       	jnz	$-424    	;abs 0x408
 5b2:	3c 40 80 09 	mov	#2432,	r12	;#0x0980
 5b6:	30 40 ac 04 	br	#0x04ac		;

000005ba <.L78>:
 5ba:	05 48       	mov	r8,	r5	;
 5bc:	30 40 8c 05 	br	#0x058c		;

000005c0 <.L54>:
 5c0:	37 40 60 80 	mov	#32864,	r7	;#0x8060
 5c4:	36 40 ba 00 	mov	#186,	r6	;#0x00ba

000005c8 <.L69>:
 5c8:	6c 47       	mov.b	@r7,	r12	;
 5ca:	86 12       	call	r6		;
 5cc:	44 4c       	mov.b	r12,	r4	;
 5ce:	5c 47 01 00 	mov.b	1(r7),	r12	;
 5d2:	86 12       	call	r6		;
 5d4:	45 4c       	mov.b	r12,	r5	;
 5d6:	5c 47 02 00 	mov.b	2(r7),	r12	;
 5da:	86 12       	call	r6		;
 5dc:	4a 4c       	mov.b	r12,	r10	;
 5de:	5c 47 03 00 	mov.b	3(r7),	r12	;
 5e2:	86 12       	call	r6		;
 5e4:	3c f0 ff 00 	and	#255,	r12	;#0x00ff
 5e8:	81 4c 06 00 	mov	r12,	6(r1)	;
 5ec:	6c 43       	mov.b	#2,	r12	;r3 As==10
 5ee:	1c 91 02 00 	cmp	2(r1),	r12	;
 5f2:	6a 28       	jnc	$+214    	;abs 0x6c8
 5f4:	1c 41 02 00 	mov	2(r1),	r12	;
 5f8:	2c 93       	cmp	#2,	r12	;r3 As==10
 5fa:	04 20       	jnz	$+10     	;abs 0x604
 5fc:	3d 40 ff 2f 	mov	#12287,	r13	;#0x2fff
 600:	2d 91       	cmp	@r1,	r13	;
 602:	62 28       	jnc	$+198    	;abs 0x6c8

00000604 <.L80>:
 604:	0c 44       	mov	r4,	r12	;
 606:	4d 43       	clr.b	r13		;
 608:	7e 40 18 00 	mov.b	#24,	r14	;#0x0018
 60c:	b0 12 6c 07 	call	#1900		;#0x076c
 610:	04 4a       	mov	r10,	r4	;
 612:	4e 43       	clr.b	r14		;
 614:	04 5a       	add	r10,	r4	;
 616:	0e 6e       	rlc	r14		;
 618:	04 54       	rla	r4		;
 61a:	0e 6e       	rlc	r14		;
 61c:	04 54       	rla	r4		;
 61e:	0e 6e       	rlc	r14		;
 620:	04 54       	rla	r4		;
 622:	0e 6e       	rlc	r14		;
 624:	04 54       	rla	r4		;
 626:	0e 6e       	rlc	r14		;
 628:	04 54       	rla	r4		;
 62a:	0e 6e       	rlc	r14		;
 62c:	04 54       	rla	r4		;
 62e:	0e 6e       	rlc	r14		;
 630:	04 54       	rla	r4		;
 632:	0e 6e       	rlc	r14		;
 634:	04 dc       	bis	r12,	r4	;
 636:	0a 4d       	mov	r13,	r10	;
 638:	0a de       	bis	r14,	r10	;
 63a:	14 d1 06 00 	bis	6(r1),	r4	;
 63e:	0c 45       	mov	r5,	r12	;
 640:	4d 43       	clr.b	r13		;
 642:	7e 40 10 00 	mov.b	#16,	r14	;#0x0010
 646:	b0 12 6c 07 	call	#1900		;#0x076c
 64a:	4f 4d       	mov.b	r13,	r15	;
 64c:	2c 41       	mov	@r1,	r12	;
 64e:	0c 5c       	rla	r12		;
 650:	1d 41 02 00 	mov	2(r1),	r13	;
 654:	0d 6d       	rlc	r13		;
 656:	0c 5c       	rla	r12		;
 658:	0d 6d       	rlc	r13		;
 65a:	0e 44       	mov	r4,	r14	;
 65c:	0f da       	bis	r10,	r15	;
 65e:	0c 53       	add	#0,	r12	;r3 As==00
 660:	3d 60 10 00 	addc	#16,	r13	;#0x0010
 664:	b0 12 92 00 	call	#146		;#0x0092

00000668 <.L64>:
 668:	7c 40 40 00 	mov.b	#64,	r12	;#0x0040
 66c:	4d 43       	clr.b	r13		;
 66e:	89 12       	call	r9		;
 670:	7c f0 0b 00 	and.b	#11,	r12	;#0x000b
 674:	2c 93       	cmp	#2,	r12	;r3 As==10
 676:	f8 27       	jz	$-14     	;abs 0x668
 678:	7c 40 40 00 	mov.b	#64,	r12	;#0x0040
 67c:	4d 43       	clr.b	r13		;
 67e:	89 12       	call	r9		;
 680:	3c b0 0b 00 	bit	#11,	r12	;#0x000b
 684:	0a 20       	jnz	$+22     	;abs 0x69a
 686:	3c 40 96 09 	mov	#2454,	r12	;#0x0996
 68a:	b0 12 66 01 	call	#358		;#0x0166
 68e:	b1 40 60 ae 	mov	#44640,	0(r1)	;#0xae60
 692:	00 00 
 694:	b1 40 0a 00 	mov	#10,	2(r1)	;#0x000a
 698:	02 00 

0000069a <.L66>:
 69a:	7c 40 40 00 	mov.b	#64,	r12	;#0x0040
 69e:	4d 43       	clr.b	r13		;
 6a0:	89 12       	call	r9		;
 6a2:	2c 41       	mov	@r1,	r12	;
 6a4:	3c 90 ff 1f 	cmp	#8191,	r12	;#0x1fff
 6a8:	04 20       	jnz	$+10     	;abs 0x6b2
 6aa:	1c 41 02 00 	mov	2(r1),	r12	;
 6ae:	0c 93       	cmp	#0,	r12	;r3 As==00
 6b0:	10 24       	jz	$+34     	;abs 0x6d2

000006b2 <.L82>:
 6b2:	91 53 00 00 	inc	0(r1)		;
 6b6:	81 63 02 00 	adc	2(r1)		;

000006ba <.L67>:
 6ba:	27 52       	add	#4,	r7	;r2 As==10
 6bc:	3e 40 80 80 	mov	#32896,	r14	;#0x8080
 6c0:	0e 97       	cmp	r7,	r14	;
 6c2:	82 23       	jnz	$-250    	;abs 0x5c8
 6c4:	30 40 cc 02 	br	#0x02cc		;

000006c8 <.L62>:
 6c8:	f2 40 05 00 	mov.b	#5,	&0x8001	;
 6cc:	01 80 
 6ce:	30 40 ba 06 	br	#0x06ba		;

000006d2 <.L95>:
 6d2:	b1 40 00 28 	mov	#10240,	0(r1)	;#0x2800
 6d6:	00 00 
 6d8:	91 43 02 00 	mov	#1,	2(r1)	;r3 As==01
 6dc:	30 40 ba 06 	br	#0x06ba		;

000006e0 <.L30>:
 6e0:	3c 40 d9 08 	mov	#2265,	r12	;#0x08d9
 6e4:	89 12       	call	r9		;
 6e6:	5c 43       	mov.b	#1,	r12	;r3 As==01
 6e8:	31 52       	add	#8,	r1	;r2 As==11
 6ea:	30 40 ee 06 	br	#0x06ee		;

000006ee <__mspabi_func_epilog_7>:
 6ee:	34 41       	pop	r4		;

000006f0 <__mspabi_func_epilog_6>:
 6f0:	35 41       	pop	r5		;

000006f2 <__mspabi_func_epilog_5>:
 6f2:	36 41       	pop	r6		;

000006f4 <__mspabi_func_epilog_4>:
 6f4:	37 41       	pop	r7		;

000006f6 <__mspabi_func_epilog_3>:
 6f6:	38 41       	pop	r8		;

000006f8 <__mspabi_func_epilog_2>:
 6f8:	39 41       	pop	r9		;

000006fa <__mspabi_func_epilog_1>:
 6fa:	3a 41       	pop	r10		;
 6fc:	30 41       	ret			

000006fe <__mspabi_slli_15>:
 6fe:	0c 5c       	rla	r12		;

00000700 <__mspabi_slli_14>:
 700:	0c 5c       	rla	r12		;

00000702 <__mspabi_slli_13>:
 702:	0c 5c       	rla	r12		;

00000704 <__mspabi_slli_12>:
 704:	0c 5c       	rla	r12		;

00000706 <__mspabi_slli_11>:
 706:	0c 5c       	rla	r12		;

00000708 <__mspabi_slli_10>:
 708:	0c 5c       	rla	r12		;

0000070a <__mspabi_slli_9>:
 70a:	0c 5c       	rla	r12		;

0000070c <__mspabi_slli_8>:
 70c:	0c 5c       	rla	r12		;

0000070e <__mspabi_slli_7>:
 70e:	0c 5c       	rla	r12		;

00000710 <__mspabi_slli_6>:
 710:	0c 5c       	rla	r12		;

00000712 <__mspabi_slli_5>:
 712:	0c 5c       	rla	r12		;

00000714 <__mspabi_slli_4>:
 714:	0c 5c       	rla	r12		;

00000716 <__mspabi_slli_3>:
 716:	0c 5c       	rla	r12		;

00000718 <__mspabi_slli_2>:
 718:	0c 5c       	rla	r12		;

0000071a <__mspabi_slli_1>:
 71a:	0c 5c       	rla	r12		;
 71c:	30 41       	ret			

0000071e <.L11>:
 71e:	3d 53       	add	#-1,	r13	;r3 As==11
 720:	0c 5c       	rla	r12		;

00000722 <__mspabi_slli>:
 722:	0d 93       	cmp	#0,	r13	;r3 As==00
 724:	fc 23       	jnz	$-6      	;abs 0x71e
 726:	30 41       	ret			

00000728 <__mspabi_slll_15>:
 728:	0c 5c       	rla	r12		;
 72a:	0d 6d       	rlc	r13		;

0000072c <__mspabi_slll_14>:
 72c:	0c 5c       	rla	r12		;
 72e:	0d 6d       	rlc	r13		;

00000730 <__mspabi_slll_13>:
 730:	0c 5c       	rla	r12		;
 732:	0d 6d       	rlc	r13		;

00000734 <__mspabi_slll_12>:
 734:	0c 5c       	rla	r12		;
 736:	0d 6d       	rlc	r13		;

00000738 <__mspabi_slll_11>:
 738:	0c 5c       	rla	r12		;
 73a:	0d 6d       	rlc	r13		;

0000073c <__mspabi_slll_10>:
 73c:	0c 5c       	rla	r12		;
 73e:	0d 6d       	rlc	r13		;

00000740 <__mspabi_slll_9>:
 740:	0c 5c       	rla	r12		;
 742:	0d 6d       	rlc	r13		;

00000744 <__mspabi_slll_8>:
 744:	0c 5c       	rla	r12		;
 746:	0d 6d       	rlc	r13		;

00000748 <__mspabi_slll_7>:
 748:	0c 5c       	rla	r12		;
 74a:	0d 6d       	rlc	r13		;

0000074c <__mspabi_slll_6>:
 74c:	0c 5c       	rla	r12		;
 74e:	0d 6d       	rlc	r13		;

00000750 <__mspabi_slll_5>:
 750:	0c 5c       	rla	r12		;
 752:	0d 6d       	rlc	r13		;

00000754 <__mspabi_slll_4>:
 754:	0c 5c       	rla	r12		;
 756:	0d 6d       	rlc	r13		;

00000758 <__mspabi_slll_3>:
 758:	0c 5c       	rla	r12		;
 75a:	0d 6d       	rlc	r13		;

0000075c <__mspabi_slll_2>:
 75c:	0c 5c       	rla	r12		;
 75e:	0d 6d       	rlc	r13		;

00000760 <__mspabi_slll_1>:
 760:	0c 5c       	rla	r12		;
 762:	0d 6d       	rlc	r13		;
 764:	30 41       	ret			

00000766 <.L12>:
 766:	3e 53       	add	#-1,	r14	;r3 As==11
 768:	0c 5c       	rla	r12		;
 76a:	0d 6d       	rlc	r13		;

0000076c <__mspabi_slll>:
 76c:	0e 93       	cmp	#0,	r14	;r3 As==00
 76e:	fb 23       	jnz	$-8      	;abs 0x766
 770:	30 41       	ret			

00000772 <__mspabi_srai_15>:
 772:	0c 11       	rra	r12		;

00000774 <__mspabi_srai_14>:
 774:	0c 11       	rra	r12		;

00000776 <__mspabi_srai_13>:
 776:	0c 11       	rra	r12		;

00000778 <__mspabi_srai_12>:
 778:	0c 11       	rra	r12		;

0000077a <__mspabi_srai_11>:
 77a:	0c 11       	rra	r12		;

0000077c <__mspabi_srai_10>:
 77c:	0c 11       	rra	r12		;

0000077e <__mspabi_srai_9>:
 77e:	0c 11       	rra	r12		;

00000780 <__mspabi_srai_8>:
 780:	0c 11       	rra	r12		;

00000782 <__mspabi_srai_7>:
 782:	0c 11       	rra	r12		;

00000784 <__mspabi_srai_6>:
 784:	0c 11       	rra	r12		;

00000786 <__mspabi_srai_5>:
 786:	0c 11       	rra	r12		;

00000788 <__mspabi_srai_4>:
 788:	0c 11       	rra	r12		;

0000078a <__mspabi_srai_3>:
 78a:	0c 11       	rra	r12		;

0000078c <__mspabi_srai_2>:
 78c:	0c 11       	rra	r12		;

0000078e <__mspabi_srai_1>:
 78e:	0c 11       	rra	r12		;
 790:	30 41       	ret			

00000792 <.L11>:
 792:	3d 53       	add	#-1,	r13	;r3 As==11
 794:	0c 11       	rra	r12		;

00000796 <__mspabi_srai>:
 796:	0d 93       	cmp	#0,	r13	;r3 As==00
 798:	fc 23       	jnz	$-6      	;abs 0x792
 79a:	30 41       	ret			

0000079c <__mspabi_sral_15>:
 79c:	0d 11       	rra	r13		;
 79e:	0c 10       	rrc	r12		;

000007a0 <__mspabi_sral_14>:
 7a0:	0d 11       	rra	r13		;
 7a2:	0c 10       	rrc	r12		;

000007a4 <__mspabi_sral_13>:
 7a4:	0d 11       	rra	r13		;
 7a6:	0c 10       	rrc	r12		;

000007a8 <__mspabi_sral_12>:
 7a8:	0d 11       	rra	r13		;
 7aa:	0c 10       	rrc	r12		;

000007ac <__mspabi_sral_11>:
 7ac:	0d 11       	rra	r13		;
 7ae:	0c 10       	rrc	r12		;

000007b0 <__mspabi_sral_10>:
 7b0:	0d 11       	rra	r13		;
 7b2:	0c 10       	rrc	r12		;

000007b4 <__mspabi_sral_9>:
 7b4:	0d 11       	rra	r13		;
 7b6:	0c 10       	rrc	r12		;

000007b8 <__mspabi_sral_8>:
 7b8:	0d 11       	rra	r13		;
 7ba:	0c 10       	rrc	r12		;

000007bc <__mspabi_sral_7>:
 7bc:	0d 11       	rra	r13		;
 7be:	0c 10       	rrc	r12		;

000007c0 <__mspabi_sral_6>:
 7c0:	0d 11       	rra	r13		;
 7c2:	0c 10       	rrc	r12		;

000007c4 <__mspabi_sral_5>:
 7c4:	0d 11       	rra	r13		;
 7c6:	0c 10       	rrc	r12		;

000007c8 <__mspabi_sral_4>:
 7c8:	0d 11       	rra	r13		;
 7ca:	0c 10       	rrc	r12		;

000007cc <__mspabi_sral_3>:
 7cc:	0d 11       	rra	r13		;
 7ce:	0c 10       	rrc	r12		;

000007d0 <__mspabi_sral_2>:
 7d0:	0d 11       	rra	r13		;
 7d2:	0c 10       	rrc	r12		;

000007d4 <__mspabi_sral_1>:
 7d4:	0d 11       	rra	r13		;
 7d6:	0c 10       	rrc	r12		;
 7d8:	30 41       	ret			

000007da <.L12>:
 7da:	3e 53       	add	#-1,	r14	;r3 As==11
 7dc:	0d 11       	rra	r13		;
 7de:	0c 10       	rrc	r12		;

000007e0 <__mspabi_sral>:
 7e0:	0e 93       	cmp	#0,	r14	;r3 As==00
 7e2:	fb 23       	jnz	$-8      	;abs 0x7da
 7e4:	30 41       	ret			

000007e6 <__mspabi_srli_15>:
 7e6:	12 c3       	clrc			
 7e8:	0c 10       	rrc	r12		;

000007ea <__mspabi_srli_14>:
 7ea:	12 c3       	clrc			
 7ec:	0c 10       	rrc	r12		;

000007ee <__mspabi_srli_13>:
 7ee:	12 c3       	clrc			
 7f0:	0c 10       	rrc	r12		;

000007f2 <__mspabi_srli_12>:
 7f2:	12 c3       	clrc			
 7f4:	0c 10       	rrc	r12		;

000007f6 <__mspabi_srli_11>:
 7f6:	12 c3       	clrc			
 7f8:	0c 10       	rrc	r12		;

000007fa <__mspabi_srli_10>:
 7fa:	12 c3       	clrc			
 7fc:	0c 10       	rrc	r12		;

000007fe <__mspabi_srli_9>:
 7fe:	12 c3       	clrc			
 800:	0c 10       	rrc	r12		;

00000802 <__mspabi_srli_8>:
 802:	12 c3       	clrc			
 804:	0c 10       	rrc	r12		;

00000806 <__mspabi_srli_7>:
 806:	12 c3       	clrc			
 808:	0c 10       	rrc	r12		;

0000080a <__mspabi_srli_6>:
 80a:	12 c3       	clrc			
 80c:	0c 10       	rrc	r12		;

0000080e <__mspabi_srli_5>:
 80e:	12 c3       	clrc			
 810:	0c 10       	rrc	r12		;

00000812 <__mspabi_srli_4>:
 812:	12 c3       	clrc			
 814:	0c 10       	rrc	r12		;

00000816 <__mspabi_srli_3>:
 816:	12 c3       	clrc			
 818:	0c 10       	rrc	r12		;

0000081a <__mspabi_srli_2>:
 81a:	12 c3       	clrc			
 81c:	0c 10       	rrc	r12		;

0000081e <__mspabi_srli_1>:
 81e:	12 c3       	clrc			
 820:	0c 10       	rrc	r12		;
 822:	30 41       	ret			

00000824 <.L11>:
 824:	3d 53       	add	#-1,	r13	;r3 As==11
 826:	12 c3       	clrc			
 828:	0c 10       	rrc	r12		;

0000082a <__mspabi_srli>:
 82a:	0d 93       	cmp	#0,	r13	;r3 As==00
 82c:	fb 23       	jnz	$-8      	;abs 0x824
 82e:	30 41       	ret			

00000830 <__mspabi_srll_15>:
 830:	12 c3       	clrc			
 832:	0d 10       	rrc	r13		;
 834:	0c 10       	rrc	r12		;

00000836 <__mspabi_srll_14>:
 836:	12 c3       	clrc			
 838:	0d 10       	rrc	r13		;
 83a:	0c 10       	rrc	r12		;

0000083c <__mspabi_srll_13>:
 83c:	12 c3       	clrc			
 83e:	0d 10       	rrc	r13		;
 840:	0c 10       	rrc	r12		;

00000842 <__mspabi_srll_12>:
 842:	12 c3       	clrc			
 844:	0d 10       	rrc	r13		;
 846:	0c 10       	rrc	r12		;

00000848 <__mspabi_srll_11>:
 848:	12 c3       	clrc			
 84a:	0d 10       	rrc	r13		;
 84c:	0c 10       	rrc	r12		;

0000084e <__mspabi_srll_10>:
 84e:	12 c3       	clrc			
 850:	0d 10       	rrc	r13		;
 852:	0c 10       	rrc	r12		;

00000854 <__mspabi_srll_9>:
 854:	12 c3       	clrc			
 856:	0d 10       	rrc	r13		;
 858:	0c 10       	rrc	r12		;

0000085a <__mspabi_srll_8>:
 85a:	12 c3       	clrc			
 85c:	0d 10       	rrc	r13		;
 85e:	0c 10       	rrc	r12		;

00000860 <__mspabi_srll_7>:
 860:	12 c3       	clrc			
 862:	0d 10       	rrc	r13		;
 864:	0c 10       	rrc	r12		;

00000866 <__mspabi_srll_6>:
 866:	12 c3       	clrc			
 868:	0d 10       	rrc	r13		;
 86a:	0c 10       	rrc	r12		;

0000086c <__mspabi_srll_5>:
 86c:	12 c3       	clrc			
 86e:	0d 10       	rrc	r13		;
 870:	0c 10       	rrc	r12		;

00000872 <__mspabi_srll_4>:
 872:	12 c3       	clrc			
 874:	0d 10       	rrc	r13		;
 876:	0c 10       	rrc	r12		;

00000878 <__mspabi_srll_3>:
 878:	12 c3       	clrc			
 87a:	0d 10       	rrc	r13		;
 87c:	0c 10       	rrc	r12		;

0000087e <__mspabi_srll_2>:
 87e:	12 c3       	clrc			
 880:	0d 10       	rrc	r13		;
 882:	0c 10       	rrc	r12		;

00000884 <__mspabi_srll_1>:
 884:	12 c3       	clrc			
 886:	0d 10       	rrc	r13		;
 888:	0c 10       	rrc	r12		;
 88a:	30 41       	ret			

0000088c <.L12>:
 88c:	3e 53       	add	#-1,	r14	;r3 As==11
 88e:	12 c3       	clrc			
 890:	0d 10       	rrc	r13		;
 892:	0c 10       	rrc	r12		;

00000894 <__mspabi_srll>:
 894:	0e 93       	cmp	#0,	r14	;r3 As==00
 896:	fa 23       	jnz	$-10     	;abs 0x88c
 898:	30 41       	ret			

0000089a <memset>:
 89a:	0f 4c       	mov	r12,	r15	;
 89c:	0e 5c       	add	r12,	r14	;

0000089e <.L2>:
 89e:	0f 9e       	cmp	r14,	r15	;
 8a0:	01 20       	jnz	$+4      	;abs 0x8a4

000008a2 <.Loc.104.1>:
 8a2:	30 41       	ret			

000008a4 <.L3>:
 8a4:	cf 4d 00 00 	mov.b	r13,	0(r15)	;
 8a8:	1f 53       	inc	r15		;

000008aa <.LVL4>:
 8aa:	30 40 9e 08 	br	#0x089e		;

Disassembly of section .MP430.attributes:

00000000 <.MP430.attributes>:
   0:	41 16       	popm.a	#5,	r5	;20-bit words
   2:	00 00       	beq			
   4:	00 6d       	addc	r13,	r0	;
   6:	73 70       	.word	0x7073;	????
   8:	61 62       	addc.b	#4,	r1	;r2 As==10
   a:	69 00 01 0b 	mova	r0,	&592641	; 0x90b01
   e:	00 00       	beq			
  10:	00 04       	bra	@r4		;
  12:	01 06       	mova	@r6,	r1	;
  14:	01 08       	mova	@r8,	r1	;
  16:	01 41       	mov	r1,	r1	;
  18:	16 00       	mova	@r0+,	r6	;
  1a:	00 00       	beq			
  1c:	6d 73       	subc.b	#2,	r13	;r3 As==10
  1e:	70 61       	addc.b	@r1+,	r0	;
  20:	62 69       	addc.b	@r9,	r2	;
  22:	00 01       	bra	@r1		;
  24:	0b 00       	mova	@r0,	r11	;
  26:	00 00       	beq			
  28:	04 01       	mova	@r1,	r4	;
  2a:	06 01       	mova	@r1,	r6	;
  2c:	08 01       	mova	@r1,	r8	;
  2e:	41 16       	popm.a	#5,	r5	;20-bit words
  30:	00 00       	beq			
  32:	00 6d       	addc	r13,	r0	;
  34:	73 70       	.word	0x7073;	????
  36:	61 62       	addc.b	#4,	r1	;r2 As==10
  38:	69 00 01 0b 	mova	r0,	&592641	; 0x90b01
  3c:	00 00       	beq			
  3e:	00 04       	bra	@r4		;
  40:	01 06       	mova	@r6,	r1	;
  42:	01 08       	mova	@r8,	r1	;
  44:	01 41       	mov	r1,	r1	;
  46:	16 00       	mova	@r0+,	r6	;
  48:	00 00       	beq			
  4a:	6d 73       	subc.b	#2,	r13	;r3 As==10
  4c:	70 61       	addc.b	@r1+,	r0	;
  4e:	62 69       	addc.b	@r9,	r2	;
  50:	00 01       	bra	@r1		;
  52:	0b 00       	mova	@r0,	r11	;
  54:	00 00       	beq			
  56:	04 01       	mova	@r1,	r4	;
  58:	06 01       	mova	@r1,	r6	;
  5a:	08 01       	mova	@r1,	r8	;
  5c:	41 16       	popm.a	#5,	r5	;20-bit words
  5e:	00 00       	beq			
  60:	00 6d       	addc	r13,	r0	;
  62:	73 70       	.word	0x7073;	????
  64:	61 62       	addc.b	#4,	r1	;r2 As==10
  66:	69 00 01 0b 	mova	r0,	&592641	; 0x90b01
  6a:	00 00       	beq			
  6c:	00 04       	bra	@r4		;
  6e:	01 06       	mova	@r6,	r1	;
  70:	01 08       	mova	@r8,	r1	;
  72:	01 41       	mov	r1,	r1	;
  74:	16 00       	mova	@r0+,	r6	;
  76:	00 00       	beq			
  78:	6d 73       	subc.b	#2,	r13	;r3 As==10
  7a:	70 61       	addc.b	@r1+,	r0	;
  7c:	62 69       	addc.b	@r9,	r2	;
  7e:	00 01       	bra	@r1		;
  80:	0b 00       	mova	@r0,	r11	;
  82:	00 00       	beq			
  84:	04 01       	mova	@r1,	r4	;
  86:	06 01       	mova	@r1,	r6	;
  88:	08 01       	mova	@r1,	r8	;
  8a:	41 16       	popm.a	#5,	r5	;20-bit words
  8c:	00 00       	beq			
  8e:	00 6d       	addc	r13,	r0	;
  90:	73 70       	.word	0x7073;	????
  92:	61 62       	addc.b	#4,	r1	;r2 As==10
  94:	69 00 01 0b 	mova	r0,	&592641	; 0x90b01
  98:	00 00       	beq			
  9a:	00 04       	bra	@r4		;
  9c:	01 06       	mova	@r6,	r1	;
  9e:	01 08       	mova	@r8,	r1	;
  a0:	01 41       	mov	r1,	r1	;
  a2:	16 00       	mova	@r0+,	r6	;
  a4:	00 00       	beq			
  a6:	6d 73       	subc.b	#2,	r13	;r3 As==10
  a8:	70 61       	addc.b	@r1+,	r0	;
  aa:	62 69       	addc.b	@r9,	r2	;
  ac:	00 01       	bra	@r1		;
  ae:	0b 00       	mova	@r0,	r11	;
  b0:	00 00       	beq			
  b2:	04 01       	mova	@r1,	r4	;
  b4:	06 01       	mova	@r1,	r6	;
  b6:	08 01       	mova	@r1,	r8	;
  b8:	41 16       	popm.a	#5,	r5	;20-bit words
  ba:	00 00       	beq			
  bc:	00 6d       	addc	r13,	r0	;
  be:	73 70       	.word	0x7073;	????
  c0:	61 62       	addc.b	#4,	r1	;r2 As==10
  c2:	69 00 01 0b 	mova	r0,	&592641	; 0x90b01
  c6:	00 00       	beq			
  c8:	00 04       	bra	@r4		;
  ca:	01 06       	mova	@r6,	r1	;
  cc:	01 08       	mova	@r8,	r1	;
  ce:	01 41       	mov	r1,	r1	;
  d0:	16 00       	mova	@r0+,	r6	;
  d2:	00 00       	beq			
  d4:	6d 73       	subc.b	#2,	r13	;r3 As==10
  d6:	70 61       	addc.b	@r1+,	r0	;
  d8:	62 69       	addc.b	@r9,	r2	;
  da:	00 01       	bra	@r1		;
  dc:	0b 00       	mova	@r0,	r11	;
  de:	00 00       	beq			
  e0:	04 01       	mova	@r1,	r4	;
  e2:	06 01       	mova	@r1,	r6	;
  e4:	08 01       	mova	@r1,	r8	;
  e6:	41 16       	popm.a	#5,	r5	;20-bit words
  e8:	00 00       	beq			
  ea:	00 6d       	addc	r13,	r0	;
  ec:	73 70       	.word	0x7073;	????
  ee:	61 62       	addc.b	#4,	r1	;r2 As==10
  f0:	69 00 01 0b 	mova	r0,	&592641	; 0x90b01
  f4:	00 00       	beq			
  f6:	00 04       	bra	@r4		;
  f8:	01 06       	mova	@r6,	r1	;
  fa:	01 08       	mova	@r8,	r1	;
  fc:	01 41       	mov	r1,	r1	;
  fe:	16 00       	mova	@r0+,	r6	;
 100:	00 00       	beq			
 102:	6d 73       	subc.b	#2,	r13	;r3 As==10
 104:	70 61       	addc.b	@r1+,	r0	;
 106:	62 69       	addc.b	@r9,	r2	;
 108:	00 01       	bra	@r1		;
 10a:	0b 00       	mova	@r0,	r11	;
 10c:	00 00       	beq			
 10e:	04 01       	mova	@r1,	r4	;
 110:	06 01       	mova	@r1,	r6	;
 112:	08 01       	mova	@r1,	r8	;
 114:	41 16       	popm.a	#5,	r5	;20-bit words
 116:	00 00       	beq			
 118:	00 6d       	addc	r13,	r0	;
 11a:	73 70       	.word	0x7073;	????
 11c:	61 62       	addc.b	#4,	r1	;r2 As==10
 11e:	69 00 01 0b 	mova	r0,	&592641	; 0x90b01
 122:	00 00       	beq			
 124:	00 04       	bra	@r4		;
 126:	01 06       	mova	@r6,	r1	;
 128:	01 08       	mova	@r8,	r1	;
 12a:	01 41       	mov	r1,	r1	;
 12c:	16 00       	mova	@r0+,	r6	;
 12e:	00 00       	beq			
 130:	6d 73       	subc.b	#2,	r13	;r3 As==10
 132:	70 61       	addc.b	@r1+,	r0	;
 134:	62 69       	addc.b	@r9,	r2	;
 136:	00 01       	bra	@r1		;
 138:	0b 00       	mova	@r0,	r11	;
 13a:	00 00       	beq			
 13c:	04 01       	mova	@r1,	r4	;
 13e:	06 01       	mova	@r1,	r6	;
 140:	08 01       	mova	@r1,	r8	;
